
bin\Debug\plipUltimate.elf:     file format elf32-avr

Sections:
Idx Name          Size      VMA       LMA       File off  Algn
  0 .data         0000003c  00800100  000027c2  00002896  2**0
                  CONTENTS, ALLOC, LOAD, DATA
  1 .text         000027c2  00000000  00000000  000000d4  2**1
                  CONTENTS, ALLOC, LOAD, READONLY, CODE
  2 .bss          00000664  0080013c  0080013c  000028d2  2**0
                  ALLOC
  3 .eeprom       00000015  00810000  00810000  000028d2  2**0
                  CONTENTS, ALLOC, LOAD, DATA
  4 .fuse         00000003  00820000  00820000  000028e7  2**0
                  CONTENTS, ALLOC, LOAD, DATA
  5 .debug_aranges 000002a0  00000000  00000000  000028ea  2**0
                  CONTENTS, READONLY, DEBUGGING
  6 .debug_pubnames 000007fa  00000000  00000000  00002b8a  2**0
                  CONTENTS, READONLY, DEBUGGING
  7 .debug_info   00005913  00000000  00000000  00003384  2**0
                  CONTENTS, READONLY, DEBUGGING
  8 .debug_abbrev 00001cae  00000000  00000000  00008c97  2**0
                  CONTENTS, READONLY, DEBUGGING
  9 .debug_line   0000327c  00000000  00000000  0000a945  2**0
                  CONTENTS, READONLY, DEBUGGING
 10 .debug_frame  000008f0  00000000  00000000  0000dbc4  2**2
                  CONTENTS, READONLY, DEBUGGING
 11 .debug_str    0000140c  00000000  00000000  0000e4b4  2**0
                  CONTENTS, READONLY, DEBUGGING
 12 .debug_loc    00002447  00000000  00000000  0000f8c0  2**0
                  CONTENTS, READONLY, DEBUGGING
 13 .debug_ranges 00000178  00000000  00000000  00011d07  2**0
                  CONTENTS, READONLY, DEBUGGING

Disassembly of section .text:

00000000 <__vectors>:
       0:	0c 94 e4 01 	jmp	0x3c8	; 0x3c8 <__ctors_end>
       4:	0c 94 01 02 	jmp	0x402	; 0x402 <__bad_interrupt>
       8:	0c 94 01 02 	jmp	0x402	; 0x402 <__bad_interrupt>
       c:	0c 94 01 02 	jmp	0x402	; 0x402 <__bad_interrupt>
      10:	0c 94 01 02 	jmp	0x402	; 0x402 <__bad_interrupt>
      14:	0c 94 01 02 	jmp	0x402	; 0x402 <__bad_interrupt>
      18:	0c 94 01 02 	jmp	0x402	; 0x402 <__bad_interrupt>
      1c:	0c 94 31 02 	jmp	0x462	; 0x462 <__vector_7>
      20:	0c 94 01 02 	jmp	0x402	; 0x402 <__bad_interrupt>
      24:	0c 94 01 02 	jmp	0x402	; 0x402 <__bad_interrupt>
      28:	0c 94 01 02 	jmp	0x402	; 0x402 <__bad_interrupt>
      2c:	0c 94 01 02 	jmp	0x402	; 0x402 <__bad_interrupt>
      30:	0c 94 01 02 	jmp	0x402	; 0x402 <__bad_interrupt>
      34:	0c 94 01 02 	jmp	0x402	; 0x402 <__bad_interrupt>
      38:	0c 94 01 02 	jmp	0x402	; 0x402 <__bad_interrupt>
      3c:	0c 94 01 02 	jmp	0x402	; 0x402 <__bad_interrupt>
      40:	0c 94 01 02 	jmp	0x402	; 0x402 <__bad_interrupt>
      44:	0c 94 01 02 	jmp	0x402	; 0x402 <__bad_interrupt>
      48:	0c 94 01 02 	jmp	0x402	; 0x402 <__bad_interrupt>
      4c:	0c 94 01 02 	jmp	0x402	; 0x402 <__bad_interrupt>
      50:	0c 94 01 02 	jmp	0x402	; 0x402 <__bad_interrupt>
      54:	0c 94 01 02 	jmp	0x402	; 0x402 <__bad_interrupt>
      58:	0c 94 01 02 	jmp	0x402	; 0x402 <__bad_interrupt>
      5c:	0c 94 01 02 	jmp	0x402	; 0x402 <__bad_interrupt>
      60:	0c 94 01 02 	jmp	0x402	; 0x402 <__bad_interrupt>
      64:	0c 94 01 02 	jmp	0x402	; 0x402 <__bad_interrupt>

00000068 <cmd_table>:
      68:	d4 00 dc 05 d6 00 e8 00 de 05 ea 00 fc 00 e0 05     ................
      78:	fe 00 15 01 bf 06 17 01 28 01 ba 06 2b 01 45 01     ........(...+.E.
      88:	b5 06 48 01 64 01 b1 06 67 01 83 01 ad 06 86 01     ..H.d...g.......
      98:	96 01 a9 06 99 01 aa 01 86 06 ac 01 c8 01 3d 06     ..............=.
      a8:	cb 01 e4 01 3d 06 e7 01 fd 01 02 06 00 02 17 02     ....=...........
      b8:	02 06 1a 02 33 02 e2 05 36 02 4b 02 02 06 4e 02     ....3...6.K...N.
      c8:	60 02 3d 06 63 02 00 00 00 00 00 00                 `.=.c.......

000000d4 <cmd_quit_name>:
      d4:	71 00                                               q.

000000d6 <cmd_quit_help>:
      d6:	71 75 69 74 20 63 6f 6d 6d 61 6e 64 20 6d 6f 64     quit command mod
      e6:	65 00                                               e.

000000e8 <cmd_device_reset_name>:
      e8:	72 00                                               r.

000000ea <cmd_device_reset_help>:
      ea:	73 6f 66 74 20 72 65 73 65 74 20 64 65 76 69 63     soft reset devic
      fa:	65 00                                               e.

000000fc <cmd_version_name>:
      fc:	76 00                                               v.

000000fe <cmd_version_help>:
      fe:	70 72 69 6e 74 20 66 69 72 6d 77 61 72 65 20 76     print firmware v
     10e:	65 72 73 69 6f 6e 00                                ersion.

00000115 <cmd_param_dump_name>:
     115:	70 00                                               p.

00000117 <cmd_param_dump_help>:
     117:	70 72 69 6e 74 20 70 61 72 61 6d 65 74 65 72 73     print parameters
	...

00000128 <cmd_param_save_name>:
     128:	70 73 00                                            ps.

0000012b <cmd_param_save_help>:
     12b:	73 61 76 65 20 70 61 72 61 6d 65 74 65 72 73 20     save parameters 
     13b:	74 6f 20 45 45 50 52 4f 4d 00                       to EEPROM.

00000145 <cmd_param_load_name>:
     145:	70 6c 00                                            pl.

00000148 <cmd_param_load_help>:
     148:	6c 6f 61 64 20 70 61 72 61 6d 65 74 65 72 73 20     load parameters 
     158:	66 72 6f 6d 20 45 45 50 52 4f 4d 00                 from EEPROM.

00000164 <cmd_param_reset_name>:
     164:	70 72 00                                            pr.

00000167 <cmd_param_reset_help>:
     167:	72 65 73 65 74 20 70 61 72 61 6d 65 74 65 72 73     reset parameters
     177:	20 74 6f 20 64 65 66 61 75 6c 74 00                  to default.

00000183 <cmd_stats_dump_name>:
     183:	73 64 00                                            sd.

00000186 <cmd_stats_dump_help>:
     186:	64 75 6d 70 20 73 74 61 74 69 73 74 69 63 73 00     dump statistics.

00000196 <cmd_stats_reset_name>:
     196:	73 72 00                                            sr.

00000199 <cmd_stats_reset_help>:
     199:	72 65 73 65 74 20 73 74 61 74 69 73 74 69 63 73     reset statistics
	...

000001aa <cmd_gen_m_name>:
     1aa:	6d 00                                               m.

000001ac <cmd_gen_m_help>:
     1ac:	6d 61 63 20 61 64 64 72 65 73 73 20 6f 66 20 64     mac address of d
     1bc:	65 76 69 63 65 20 3c 6d 61 63 3e 00                 evice <mac>.

000001c8 <cmd_gen_fd_name>:
     1c8:	66 64 00                                            fd.

000001cb <cmd_gen_fd_help>:
     1cb:	73 65 74 20 66 75 6c 6c 20 64 75 70 6c 65 20 6d     set full duple m
     1db:	6f 64 65 20 5b 6f 6e 5d 00                          ode [on].

000001e4 <cmd_gen_fc_name>:
     1e4:	66 63 00                                            fc.

000001e7 <cmd_gen_fc_help>:
     1e7:	73 65 74 20 66 6c 6f 77 20 63 6f 6e 74 72 6f 6c     set flow control
     1f7:	20 5b 6f 6e 5d 00                                    [on].

000001fd <cmd_gen_tl_name>:
     1fd:	74 6c 00                                            tl.

00000200 <cmd_gen_tl_help>:
     200:	74 65 73 74 20 70 61 63 6b 65 74 20 6c 65 6e 67     test packet leng
     210:	74 68 20 3c 6e 3e 00                                th <n>.

00000217 <cmd_gen_tt_name>:
     217:	74 74 00                                            tt.

0000021a <cmd_gen_tt_help>:
     21a:	74 65 73 74 20 70 61 63 6b 65 74 20 65 74 68 20     test packet eth 
     22a:	74 79 70 65 20 3c 6e 3e 00                          type <n>.

00000233 <cmd_gen_ti_name>:
     233:	74 69 00                                            ti.

00000236 <cmd_gen_ti_help>:
     236:	74 65 73 74 20 49 50 20 61 64 64 72 65 73 73 20     test IP address 
     246:	3c 69 70 3e 00                                      <ip>.

0000024b <cmd_gen_tp_name>:
     24b:	74 70 00                                            tp.

0000024e <cmd_gen_tp_help>:
     24e:	74 65 73 74 20 55 44 50 20 70 6f 72 74 20 3c 6e     test UDP port <n
     25e:	3e 00                                               >.

00000260 <cmd_gen_tm_name>:
     260:	74 6d 00                                            tm.

00000263 <cmd_gen_tm_help>:
     263:	74 65 73 74 20 6d 6f 64 65 20 5b 30 7c 31 5d 00     test mode [0|1].

00000273 <cmdkey_table>:
     273:	31 cb 06 aa 02 32 ce 06 bc 02 33 c7 06 d3 02 34     1....2....3....4
     283:	c3 06 e7 02 73 e9 06 fa 02 53 e6 06 0a 03 76 d2     ....s....S....v.
     293:	06 1b 03 70 e2 06 31 03 50 de 06 52 03 61 db 06     ...p..1.P..R.a..
     2a3:	7c 03 00 00 00 00 00                                |......

000002aa <cmd_enter_bridge_mode_help>:
     2aa:	65 6e 74 65 72 20 62 72 69 64 67 65 20 6d 6f 64     enter bridge mod
     2ba:	65 00                                               e.

000002bc <cmd_enter_bridge_test_mode_help>:
     2bc:	65 6e 74 65 72 20 62 72 69 64 67 65 20 74 65 73     enter bridge tes
     2cc:	74 20 6d 6f 64 65 00                                t mode.

000002d3 <cmd_enter_pio_test_mode_help>:
     2d3:	65 6e 74 65 72 20 50 49 4f 20 74 65 73 74 20 6d     enter PIO test m
     2e3:	6f 64 65 00                                         ode.

000002e7 <cmd_enter_pb_test_mode_help>:
     2e7:	65 6e 74 65 72 20 50 42 20 74 65 73 74 20 6d 6f     enter PB test mo
     2f7:	64 65 00                                            de.

000002fa <cmd_dump_stats_help>:
     2fa:	64 75 6d 70 20 73 74 61 74 69 73 74 69 63 73 00     dump statistics.

0000030a <cmd_reset_stats_help>:
     30a:	72 65 73 65 74 20 73 74 61 74 69 73 74 69 63 73     reset statistics
	...

0000031b <cmd_toggle_verbose_help>:
     31b:	74 6f 67 67 6c 65 20 76 65 72 62 6f 73 65 20 6f     toggle verbose o
     32b:	75 74 70 75 74 00                                   utput.

00000331 <cmd_send_test_packet_help>:
     331:	73 65 6e 64 20 61 20 74 65 73 74 20 70 61 63 6b     send a test pack
     341:	65 74 20 28 70 62 74 65 73 74 20 6d 6f 64 65 29     et (pbtest mode)
	...

00000352 <cmd_send_test_packet_silent_help>:
     352:	73 65 6e 64 20 61 20 74 65 73 74 20 70 61 63 6b     send a test pack
     362:	65 74 20 28 73 69 6c 65 6e 74 29 20 28 70 62 74     et (silent) (pbt
     372:	65 73 74 20 6d 6f 64 65 29 00                       est mode).

0000037c <cmd_toggle_auto_mode_help>:
     37c:	74 6f 67 67 6c 65 20 61 75 74 6f 20 73 65 6e 64     toggle auto send
     38c:	20 28 70 62 74 65 73 74 20 6d 6f 64 65 29 00         (pbtest mode).

0000039b <default_param>:
     39b:	1a 11 af a0 47 11 00 00 ea 05 fd ff c0 a8 02 de     ....G...........
     3ab:	90 1a 00                                            ...

000003ae <pio_dev_enc28j60>:
     3ae:	be 03 ab 11 01 11 4e 11 90 12 a7 11 1f 11 0a 11     ......N.........

000003be <dev_name>:
     3be:	65 6e 63 32 38 6a 36 30 00 00                       enc28j60..

000003c8 <__ctors_end>:
     3c8:	11 24       	eor	r1, r1
     3ca:	1f be       	out	0x3f, r1	; 63
     3cc:	cf ef       	ldi	r28, 0xFF	; 255
     3ce:	d8 e0       	ldi	r29, 0x08	; 8
     3d0:	de bf       	out	0x3e, r29	; 62
     3d2:	cd bf       	out	0x3d, r28	; 61

000003d4 <__do_copy_data>:
     3d4:	11 e0       	ldi	r17, 0x01	; 1
     3d6:	a0 e0       	ldi	r26, 0x00	; 0
     3d8:	b1 e0       	ldi	r27, 0x01	; 1
     3da:	e2 ec       	ldi	r30, 0xC2	; 194
     3dc:	f7 e2       	ldi	r31, 0x27	; 39
     3de:	02 c0       	rjmp	.+4      	; 0x3e4 <.do_copy_data_start>

000003e0 <.do_copy_data_loop>:
     3e0:	05 90       	lpm	r0, Z+
     3e2:	0d 92       	st	X+, r0

000003e4 <.do_copy_data_start>:
     3e4:	ac 33       	cpi	r26, 0x3C	; 60
     3e6:	b1 07       	cpc	r27, r17
     3e8:	d9 f7       	brne	.-10     	; 0x3e0 <.do_copy_data_loop>

000003ea <__do_clear_bss>:
     3ea:	17 e0       	ldi	r17, 0x07	; 7
     3ec:	ac e3       	ldi	r26, 0x3C	; 60
     3ee:	b1 e0       	ldi	r27, 0x01	; 1
     3f0:	01 c0       	rjmp	.+2      	; 0x3f4 <.do_clear_bss_start>

000003f2 <.do_clear_bss_loop>:
     3f2:	1d 92       	st	X+, r1

000003f4 <.do_clear_bss_start>:
     3f4:	a0 3a       	cpi	r26, 0xA0	; 160
     3f6:	b1 07       	cpc	r27, r17
     3f8:	e1 f7       	brne	.-8      	; 0x3f2 <.do_clear_bss_loop>
     3fa:	0e 94 3d 07 	call	0xe7a	; 0xe7a <main>
     3fe:	0c 94 df 13 	jmp	0x27be	; 0x27be <_exit>

00000402 <__bad_interrupt>:
     402:	0c 94 00 00 	jmp	0	; 0x0 <__vectors>

00000406 <timer_init>:
/// 100us is 1/10k of a second
/// NOTE(KaiN#): time was reduced by 1, should it be?
#define T2_100us ((F_CPU/8)/10000)

void timer_init(void) {
  cli();
     406:	f8 94       	cli

	/// Set timer 2 to CTC, prescaler 8 & compare value: 100us
  TCCR2A = _BV(WGM21);  // CTC
     408:	82 e0       	ldi	r24, 0x02	; 2
     40a:	80 93 b0 00 	sts	0x00B0, r24
  TCCR2B = _BV(CS21);   // Prescaler 8
     40e:	80 93 b1 00 	sts	0x00B1, r24
  OCR2A = T2_100us;     // Output compare
     412:	9a ef       	ldi	r25, 0xFA	; 250
     414:	90 93 b3 00 	sts	0x00B3, r25
  TCNT2  = 0x00;        // Reset timer state
     418:	10 92 b2 00 	sts	0x00B2, r1
  TIMSK2 = _BV(OCIE2A); // Enable compare interrupt
     41c:	80 93 70 00 	sts	0x0070, r24
  // ----- TIMER1 (16bit) -----
  // prescale 64
  // 16 MHz -> 250 KHz = 4 us timer

  // set to CTC on OCR1A with prescale 8
  TCCR1A = 0x00;
     420:	10 92 80 00 	sts	0x0080, r1
  TCCR1B = _BV(CS11) | _BV(CS10); // prescale 64
     424:	83 e0       	ldi	r24, 0x03	; 3
     426:	80 93 81 00 	sts	0x0081, r24
  TCCR1C = 0x00;
     42a:	10 92 82 00 	sts	0x0082, r1

  // reset timer
  TCNT1 = 0;
     42e:	10 92 85 00 	sts	0x0085, r1
     432:	10 92 84 00 	sts	0x0084, r1

  timer_100us = 0;
     436:	10 92 62 01 	sts	0x0162, r1
     43a:	10 92 61 01 	sts	0x0161, r1
  timer_10ms = 0;
     43e:	10 92 60 01 	sts	0x0160, r1
     442:	10 92 5f 01 	sts	0x015F, r1
  time_stamp = 0;
     446:	10 92 5b 01 	sts	0x015B, r1
     44a:	10 92 5c 01 	sts	0x015C, r1
     44e:	10 92 5d 01 	sts	0x015D, r1
     452:	10 92 5e 01 	sts	0x015E, r1
  count = 0;
     456:	10 92 3d 01 	sts	0x013D, r1
     45a:	10 92 3c 01 	sts	0x013C, r1

  sei();
     45e:	78 94       	sei
}
     460:	08 95       	ret

00000462 <__vector_7>:

// timer2 compare A handler
ISR(T2_vect) {
     462:	1f 92       	push	r1
     464:	0f 92       	push	r0
     466:	0f b6       	in	r0, 0x3f	; 63
     468:	0f 92       	push	r0
     46a:	11 24       	eor	r1, r1
     46c:	2f 93       	push	r18
     46e:	8f 93       	push	r24
     470:	9f 93       	push	r25
     472:	af 93       	push	r26
     474:	bf 93       	push	r27
  ++timer_100us;
     476:	80 91 61 01 	lds	r24, 0x0161
     47a:	90 91 62 01 	lds	r25, 0x0162
     47e:	01 96       	adiw	r24, 0x01	; 1
     480:	90 93 62 01 	sts	0x0162, r25
     484:	80 93 61 01 	sts	0x0161, r24
  ++time_stamp;
     488:	80 91 5b 01 	lds	r24, 0x015B
     48c:	90 91 5c 01 	lds	r25, 0x015C
     490:	a0 91 5d 01 	lds	r26, 0x015D
     494:	b0 91 5e 01 	lds	r27, 0x015E
     498:	01 96       	adiw	r24, 0x01	; 1
     49a:	a1 1d       	adc	r26, r1
     49c:	b1 1d       	adc	r27, r1
     49e:	80 93 5b 01 	sts	0x015B, r24
     4a2:	90 93 5c 01 	sts	0x015C, r25
     4a6:	a0 93 5d 01 	sts	0x015D, r26
     4aa:	b0 93 5e 01 	sts	0x015E, r27
  ++count;
     4ae:	80 91 3c 01 	lds	r24, 0x013C
     4b2:	90 91 3d 01 	lds	r25, 0x013D
     4b6:	01 96       	adiw	r24, 0x01	; 1
     4b8:	90 93 3d 01 	sts	0x013D, r25
     4bc:	80 93 3c 01 	sts	0x013C, r24
  if(count >= 1000) {
     4c0:	88 5e       	subi	r24, 0xE8	; 232
     4c2:	93 40       	sbci	r25, 0x03	; 3
     4c4:	68 f0       	brcs	.+26     	; 0x4e0 <__vector_7+0x7e>
    count = 0;
     4c6:	10 92 3d 01 	sts	0x013D, r1
     4ca:	10 92 3c 01 	sts	0x013C, r1
    timer_10ms++;
     4ce:	80 91 5f 01 	lds	r24, 0x015F
     4d2:	90 91 60 01 	lds	r25, 0x0160
     4d6:	01 96       	adiw	r24, 0x01	; 1
     4d8:	90 93 60 01 	sts	0x0160, r25
     4dc:	80 93 5f 01 	sts	0x015F, r24
  }
}
     4e0:	bf 91       	pop	r27
     4e2:	af 91       	pop	r26
     4e4:	9f 91       	pop	r25
     4e6:	8f 91       	pop	r24
     4e8:	2f 91       	pop	r18
     4ea:	0f 90       	pop	r0
     4ec:	0f be       	out	0x3f, r0	; 63
     4ee:	0f 90       	pop	r0
     4f0:	1f 90       	pop	r1
     4f2:	18 95       	reti

000004f4 <timer_delay_10ms>:

/// Busy-wait for supplied number of 10ms intervals
void timer_delay_10ms(uint16_t uwIntervalCount) {
     4f4:	9c 01       	movw	r18, r24
	timer_10ms=0;
     4f6:	10 92 60 01 	sts	0x0160, r1
     4fa:	10 92 5f 01 	sts	0x015F, r1
	while(timer_10ms<uwIntervalCount);
     4fe:	80 91 5f 01 	lds	r24, 0x015F
     502:	90 91 60 01 	lds	r25, 0x0160
     506:	82 17       	cp	r24, r18
     508:	93 07       	cpc	r25, r19
     50a:	c8 f3       	brcs	.-14     	; 0x4fe <timer_delay_10ms+0xa>
}
     50c:	08 95       	ret

0000050e <timer_delay_100us>:

/// Busy-wait for supplied number of 100us intervals
void timer_delay_100us(uint16_t uwIntervalCount) {
     50e:	9c 01       	movw	r18, r24
	timer_100us=0;
     510:	10 92 62 01 	sts	0x0162, r1
     514:	10 92 61 01 	sts	0x0161, r1
	while(timer_100us<uwIntervalCount);
     518:	80 91 61 01 	lds	r24, 0x0161
     51c:	90 91 62 01 	lds	r25, 0x0162
     520:	82 17       	cp	r24, r18
     522:	93 07       	cpc	r25, r19
     524:	c8 f3       	brcs	.-14     	; 0x518 <timer_delay_100us+0xa>
}
     526:	08 95       	ret

00000528 <timer_hw_calc_rate_kbs>:

/// Calculates bitrate based on transferred byte count and elapsed time
uint16_t timer_hw_calc_rate_kbs(uint16_t bytes, uint16_t delta) {
     528:	cf 93       	push	r28
     52a:	df 93       	push	r29
     52c:	eb 01       	movw	r28, r22
  if(delta != 0) {
     52e:	61 15       	cp	r22, r1
     530:	71 05       	cpc	r23, r1
     532:	19 f4       	brne	.+6      	; 0x53a <timer_hw_calc_rate_kbs+0x12>
     534:	20 e0       	ldi	r18, 0x00	; 0
     536:	30 e0       	ldi	r19, 0x00	; 0
     538:	16 c0       	rjmp	.+44     	; 0x566 <timer_hw_calc_rate_kbs+0x3e>
    uint32_t nom = 1000 * (uint32_t)bytes * 100;
    uint32_t denom = (uint32_t)delta * 4;
    uint32_t rate = nom / denom;
    return (uint16_t)rate;
     53a:	bc 01       	movw	r22, r24
     53c:	80 e0       	ldi	r24, 0x00	; 0
     53e:	90 e0       	ldi	r25, 0x00	; 0
     540:	20 ea       	ldi	r18, 0xA0	; 160
     542:	36 e8       	ldi	r19, 0x86	; 134
     544:	41 e0       	ldi	r20, 0x01	; 1
     546:	50 e0       	ldi	r21, 0x00	; 0
     548:	0e 94 5f 13 	call	0x26be	; 0x26be <__mulsi3>
     54c:	9e 01       	movw	r18, r28
     54e:	40 e0       	ldi	r20, 0x00	; 0
     550:	50 e0       	ldi	r21, 0x00	; 0
     552:	22 0f       	add	r18, r18
     554:	33 1f       	adc	r19, r19
     556:	44 1f       	adc	r20, r20
     558:	55 1f       	adc	r21, r21
     55a:	22 0f       	add	r18, r18
     55c:	33 1f       	adc	r19, r19
     55e:	44 1f       	adc	r20, r20
     560:	55 1f       	adc	r21, r21
     562:	0e 94 8a 13 	call	0x2714	; 0x2714 <__udivmodsi4>
  }
	else
		return 0;
}
     566:	82 2f       	mov	r24, r18
     568:	93 2f       	mov	r25, r19
     56a:	df 91       	pop	r29
     56c:	cf 91       	pop	r28
     56e:	08 95       	ret

00000570 <nybble_to_hex>:

// convert to hex

uint8_t nybble_to_hex(uint8_t in)
{
  if(in<10)
     570:	8a 30       	cpi	r24, 0x0A	; 10
     572:	10 f4       	brcc	.+4      	; 0x578 <nybble_to_hex+0x8>
    return '0' + in;
     574:	80 5d       	subi	r24, 0xD0	; 208
     576:	08 95       	ret
  else
    return 'A' + in - 10;
     578:	89 5c       	subi	r24, 0xC9	; 201
}
     57a:	08 95       	ret

0000057c <byte_to_hex>:

void byte_to_hex(uint8_t in,uint8_t *out)
{
     57c:	ff 92       	push	r15
     57e:	0f 93       	push	r16
     580:	1f 93       	push	r17
     582:	f8 2e       	mov	r15, r24
     584:	8b 01       	movw	r16, r22
  out[0] = nybble_to_hex(in >> 4);
     586:	82 95       	swap	r24
     588:	8f 70       	andi	r24, 0x0F	; 15
     58a:	0e 94 b8 02 	call	0x570	; 0x570 <nybble_to_hex>
     58e:	f8 01       	movw	r30, r16
     590:	80 83       	st	Z, r24
  out[1] = nybble_to_hex(in & 0xf);
     592:	8f 2d       	mov	r24, r15
     594:	8f 70       	andi	r24, 0x0F	; 15
     596:	0e 94 b8 02 	call	0x570	; 0x570 <nybble_to_hex>
     59a:	f8 01       	movw	r30, r16
     59c:	81 83       	std	Z+1, r24	; 0x01
}
     59e:	1f 91       	pop	r17
     5a0:	0f 91       	pop	r16
     5a2:	ff 90       	pop	r15
     5a4:	08 95       	ret

000005a6 <word_to_hex>:

void word_to_hex(uint16_t in,uint8_t *out)
{
     5a6:	ff 92       	push	r15
     5a8:	0f 93       	push	r16
     5aa:	1f 93       	push	r17
     5ac:	f8 2e       	mov	r15, r24
     5ae:	8b 01       	movw	r16, r22
  byte_to_hex((uint8_t)(in>>8),out);
     5b0:	89 2f       	mov	r24, r25
     5b2:	0e 94 be 02 	call	0x57c	; 0x57c <byte_to_hex>
  byte_to_hex((uint8_t)(in&0xff),out+2);
     5b6:	0e 5f       	subi	r16, 0xFE	; 254
     5b8:	1f 4f       	sbci	r17, 0xFF	; 255
     5ba:	8f 2d       	mov	r24, r15
     5bc:	b8 01       	movw	r22, r16
     5be:	0e 94 be 02 	call	0x57c	; 0x57c <byte_to_hex>
}
     5c2:	1f 91       	pop	r17
     5c4:	0f 91       	pop	r16
     5c6:	ff 90       	pop	r15
     5c8:	08 95       	ret

000005ca <dword_to_hex>:

void dword_to_hex(uint32_t addr,uint8_t *out)
{
     5ca:	cf 92       	push	r12
     5cc:	df 92       	push	r13
     5ce:	ef 92       	push	r14
     5d0:	ff 92       	push	r15
     5d2:	0f 93       	push	r16
     5d4:	1f 93       	push	r17
     5d6:	6b 01       	movw	r12, r22
     5d8:	7c 01       	movw	r14, r24
     5da:	8a 01       	movw	r16, r20
  word_to_hex((uint16_t)(addr>>16),out);
     5dc:	aa 27       	eor	r26, r26
     5de:	bb 27       	eor	r27, r27
     5e0:	ba 01       	movw	r22, r20
     5e2:	0e 94 d3 02 	call	0x5a6	; 0x5a6 <word_to_hex>
  word_to_hex((uint16_t)(addr&0xffff),out+4);
     5e6:	0c 5f       	subi	r16, 0xFC	; 252
     5e8:	1f 4f       	sbci	r17, 0xFF	; 255
     5ea:	c6 01       	movw	r24, r12
     5ec:	b8 01       	movw	r22, r16
     5ee:	0e 94 d3 02 	call	0x5a6	; 0x5a6 <word_to_hex>
}
     5f2:	1f 91       	pop	r17
     5f4:	0f 91       	pop	r16
     5f6:	ff 90       	pop	r15
     5f8:	ef 90       	pop	r14
     5fa:	df 90       	pop	r13
     5fc:	cf 90       	pop	r12
     5fe:	08 95       	ret

00000600 <byte_to_dec>:

void byte_to_dec(uint8_t value, uint8_t *out)
{
     600:	28 2f       	mov	r18, r24
     602:	fb 01       	movw	r30, r22
  uint8_t h = value / 100;
  uint8_t t = value % 100;
     604:	64 e6       	ldi	r22, 0x64	; 100
     606:	0e 94 7e 13 	call	0x26fc	; 0x26fc <__udivmodqi4>
     60a:	39 2f       	mov	r19, r25
  uint8_t o = t % 10;
  t = t / 10;
  out[0] = '0' + h;
     60c:	82 2f       	mov	r24, r18
     60e:	0e 94 7e 13 	call	0x26fc	; 0x26fc <__udivmodqi4>
     612:	80 5d       	subi	r24, 0xD0	; 208
     614:	80 83       	st	Z, r24
  out[1] = '0' + t;
     616:	83 2f       	mov	r24, r19
     618:	6a e0       	ldi	r22, 0x0A	; 10
     61a:	0e 94 7e 13 	call	0x26fc	; 0x26fc <__udivmodqi4>
     61e:	80 5d       	subi	r24, 0xD0	; 208
     620:	81 83       	std	Z+1, r24	; 0x01
  out[2] = '0' + o;
     622:	83 2f       	mov	r24, r19
     624:	0e 94 7e 13 	call	0x26fc	; 0x26fc <__udivmodqi4>
     628:	90 5d       	subi	r25, 0xD0	; 208
     62a:	92 83       	std	Z+2, r25	; 0x02
}
     62c:	08 95       	ret

0000062e <dword_to_dec>:

void dword_to_dec(uint32_t value, uint8_t *out, uint8_t num_digits, uint8_t point_pos)
{
     62e:	af 92       	push	r10
     630:	bf 92       	push	r11
     632:	cf 92       	push	r12
     634:	df 92       	push	r13
     636:	ef 92       	push	r14
     638:	ff 92       	push	r15
     63a:	0f 93       	push	r16
     63c:	1f 93       	push	r17
     63e:	cf 93       	push	r28
     640:	df 93       	push	r29
     642:	c6 2e       	mov	r12, r22
     644:	d7 2e       	mov	r13, r23
     646:	e8 2e       	mov	r14, r24
     648:	f9 2e       	mov	r15, r25
     64a:	b2 2e       	mov	r11, r18
	uint8_t i;
  // start backwards
  uint8_t *pos = out + num_digits - 1;
     64c:	82 2f       	mov	r24, r18
     64e:	90 e0       	ldi	r25, 0x00	; 0
     650:	01 97       	sbiw	r24, 0x01	; 1
     652:	ea 01       	movw	r28, r20
     654:	c8 0f       	add	r28, r24
     656:	d9 1f       	adc	r29, r25
  if(point_pos < num_digits) {
     658:	02 17       	cp	r16, r18
     65a:	08 f4       	brcc	.+2      	; 0x65e <dword_to_dec+0x30>
    pos++;
     65c:	21 96       	adiw	r28, 0x01	; 1
  }
  for(i=0;i<num_digits;i++) {
     65e:	bb 20       	and	r11, r11
     660:	41 f1       	breq	.+80     	; 0x6b2 <dword_to_dec+0x84>
     662:	10 e0       	ldi	r17, 0x00	; 0
    if(i == point_pos) {
      *pos = '.';
     664:	0f 2e       	mov	r0, r31
     666:	fe e2       	ldi	r31, 0x2E	; 46
     668:	af 2e       	mov	r10, r31
     66a:	f0 2d       	mov	r31, r0
  uint8_t *pos = out + num_digits - 1;
  if(point_pos < num_digits) {
    pos++;
  }
  for(i=0;i<num_digits;i++) {
    if(i == point_pos) {
     66c:	10 17       	cp	r17, r16
     66e:	11 f4       	brne	.+4      	; 0x674 <dword_to_dec+0x46>
      *pos = '.';
     670:	a8 82       	st	Y, r10
      pos--;
     672:	21 97       	sbiw	r28, 0x01	; 1
    }
    uint8_t dec = value % 10;
    *pos = '0' + dec;
     674:	6c 2d       	mov	r22, r12
     676:	7d 2d       	mov	r23, r13
     678:	8e 2d       	mov	r24, r14
     67a:	9f 2d       	mov	r25, r15
     67c:	2a e0       	ldi	r18, 0x0A	; 10
     67e:	30 e0       	ldi	r19, 0x00	; 0
     680:	40 e0       	ldi	r20, 0x00	; 0
     682:	50 e0       	ldi	r21, 0x00	; 0
     684:	0e 94 8a 13 	call	0x2714	; 0x2714 <__udivmodsi4>
     688:	60 5d       	subi	r22, 0xD0	; 208
     68a:	68 83       	st	Y, r22
  // start backwards
  uint8_t *pos = out + num_digits - 1;
  if(point_pos < num_digits) {
    pos++;
  }
  for(i=0;i<num_digits;i++) {
     68c:	1f 5f       	subi	r17, 0xFF	; 255
     68e:	1b 15       	cp	r17, r11
     690:	80 f4       	brcc	.+32     	; 0x6b2 <dword_to_dec+0x84>
      *pos = '.';
      pos--;
    }
    uint8_t dec = value % 10;
    *pos = '0' + dec;
    pos--;
     692:	21 97       	sbiw	r28, 0x01	; 1
    value /= 10;
     694:	6c 2d       	mov	r22, r12
     696:	7d 2d       	mov	r23, r13
     698:	8e 2d       	mov	r24, r14
     69a:	9f 2d       	mov	r25, r15
     69c:	2a e0       	ldi	r18, 0x0A	; 10
     69e:	30 e0       	ldi	r19, 0x00	; 0
     6a0:	40 e0       	ldi	r20, 0x00	; 0
     6a2:	50 e0       	ldi	r21, 0x00	; 0
     6a4:	0e 94 8a 13 	call	0x2714	; 0x2714 <__udivmodsi4>
     6a8:	c2 2e       	mov	r12, r18
     6aa:	d3 2e       	mov	r13, r19
     6ac:	e4 2e       	mov	r14, r20
     6ae:	f5 2e       	mov	r15, r21
     6b0:	dd cf       	rjmp	.-70     	; 0x66c <dword_to_dec+0x3e>
  }
}
     6b2:	df 91       	pop	r29
     6b4:	cf 91       	pop	r28
     6b6:	1f 91       	pop	r17
     6b8:	0f 91       	pop	r16
     6ba:	ff 90       	pop	r15
     6bc:	ef 90       	pop	r14
     6be:	df 90       	pop	r13
     6c0:	cf 90       	pop	r12
     6c2:	bf 90       	pop	r11
     6c4:	af 90       	pop	r10
     6c6:	08 95       	ret

000006c8 <parse_nybble>:

// parse

uint8_t parse_nybble(uint8_t c,uint8_t *value)
{
     6c8:	98 2f       	mov	r25, r24
     6ca:	fb 01       	movw	r30, r22
  if((c>='a')&&(c<='f')) {
     6cc:	81 56       	subi	r24, 0x61	; 97
     6ce:	86 30       	cpi	r24, 0x06	; 6
     6d0:	20 f4       	brcc	.+8      	; 0x6da <parse_nybble+0x12>
    *value = c + 10 - 'a';
     6d2:	86 5f       	subi	r24, 0xF6	; 246
     6d4:	80 83       	st	Z, r24
     6d6:	81 e0       	ldi	r24, 0x01	; 1
     6d8:	08 95       	ret
    return 1;
  }
  else if((c>='A')&&(c<='F')) {
     6da:	89 2f       	mov	r24, r25
     6dc:	81 54       	subi	r24, 0x41	; 65
     6de:	86 30       	cpi	r24, 0x06	; 6
     6e0:	20 f4       	brcc	.+8      	; 0x6ea <parse_nybble+0x22>
    *value = c + 10 - 'A';
     6e2:	86 5f       	subi	r24, 0xF6	; 246
     6e4:	80 83       	st	Z, r24
     6e6:	81 e0       	ldi	r24, 0x01	; 1
     6e8:	08 95       	ret
    return 1;
  }
  else if((c>='0')&&(c<='9')) {
     6ea:	89 2f       	mov	r24, r25
     6ec:	80 53       	subi	r24, 0x30	; 48
     6ee:	8a 30       	cpi	r24, 0x0A	; 10
     6f0:	10 f0       	brcs	.+4      	; 0x6f6 <parse_nybble+0x2e>
     6f2:	80 e0       	ldi	r24, 0x00	; 0
     6f4:	08 95       	ret
    *value = c - '0';
     6f6:	80 83       	st	Z, r24
     6f8:	81 e0       	ldi	r24, 0x01	; 1
    return 1;
  }
  else
    return 0;
}
     6fa:	08 95       	ret

000006fc <parse_byte>:

uint8_t parse_byte(const uint8_t *str,uint8_t *value)
{
     6fc:	ef 92       	push	r14
     6fe:	ff 92       	push	r15
     700:	0f 93       	push	r16
     702:	1f 93       	push	r17
     704:	df 93       	push	r29
     706:	cf 93       	push	r28
     708:	0f 92       	push	r0
     70a:	cd b7       	in	r28, 0x3d	; 61
     70c:	de b7       	in	r29, 0x3e	; 62
     70e:	8c 01       	movw	r16, r24
     710:	7b 01       	movw	r14, r22
  uint8_t val;
  if(!parse_nybble(str[0],&val))
     712:	fc 01       	movw	r30, r24
     714:	80 81       	ld	r24, Z
     716:	be 01       	movw	r22, r28
     718:	6f 5f       	subi	r22, 0xFF	; 255
     71a:	7f 4f       	sbci	r23, 0xFF	; 255
     71c:	0e 94 64 03 	call	0x6c8	; 0x6c8 <parse_nybble>
     720:	88 23       	and	r24, r24
     722:	91 f0       	breq	.+36     	; 0x748 <parse_byte+0x4c>
    return 0;
  val <<= 4;
     724:	89 81       	ldd	r24, Y+1	; 0x01
     726:	82 95       	swap	r24
     728:	80 7f       	andi	r24, 0xF0	; 240
     72a:	89 83       	std	Y+1, r24	; 0x01
  if(!parse_nybble(str[1],value))
     72c:	f8 01       	movw	r30, r16
     72e:	81 81       	ldd	r24, Z+1	; 0x01
     730:	b7 01       	movw	r22, r14
     732:	0e 94 64 03 	call	0x6c8	; 0x6c8 <parse_nybble>
     736:	88 23       	and	r24, r24
     738:	39 f0       	breq	.+14     	; 0x748 <parse_byte+0x4c>
    return 0;
  *value |= val;
     73a:	f7 01       	movw	r30, r14
     73c:	80 81       	ld	r24, Z
     73e:	99 81       	ldd	r25, Y+1	; 0x01
     740:	89 2b       	or	r24, r25
     742:	80 83       	st	Z, r24
     744:	81 e0       	ldi	r24, 0x01	; 1
     746:	01 c0       	rjmp	.+2      	; 0x74a <parse_byte+0x4e>
  return 1;
     748:	80 e0       	ldi	r24, 0x00	; 0
}
     74a:	0f 90       	pop	r0
     74c:	cf 91       	pop	r28
     74e:	df 91       	pop	r29
     750:	1f 91       	pop	r17
     752:	0f 91       	pop	r16
     754:	ff 90       	pop	r15
     756:	ef 90       	pop	r14
     758:	08 95       	ret

0000075a <parse_word>:

uint8_t parse_word(const uint8_t *str,uint16_t *value)
{
     75a:	ef 92       	push	r14
     75c:	ff 92       	push	r15
     75e:	0f 93       	push	r16
     760:	1f 93       	push	r17
     762:	df 93       	push	r29
     764:	cf 93       	push	r28
     766:	00 d0       	rcall	.+0      	; 0x768 <parse_word+0xe>
     768:	cd b7       	in	r28, 0x3d	; 61
     76a:	de b7       	in	r29, 0x3e	; 62
     76c:	8c 01       	movw	r16, r24
     76e:	7b 01       	movw	r14, r22
  uint8_t val;
  if(!parse_byte(&str[0],&val))
     770:	be 01       	movw	r22, r28
     772:	6f 5f       	subi	r22, 0xFF	; 255
     774:	7f 4f       	sbci	r23, 0xFF	; 255
     776:	0e 94 7e 03 	call	0x6fc	; 0x6fc <parse_byte>
     77a:	88 23       	and	r24, r24
     77c:	a1 f0       	breq	.+40     	; 0x7a6 <parse_word+0x4c>
    return 0;
  uint8_t val2;
  if(!parse_byte(&str[2],&val2))
     77e:	c8 01       	movw	r24, r16
     780:	02 96       	adiw	r24, 0x02	; 2
     782:	be 01       	movw	r22, r28
     784:	6e 5f       	subi	r22, 0xFE	; 254
     786:	7f 4f       	sbci	r23, 0xFF	; 255
     788:	0e 94 7e 03 	call	0x6fc	; 0x6fc <parse_byte>
     78c:	88 23       	and	r24, r24
     78e:	59 f0       	breq	.+22     	; 0x7a6 <parse_word+0x4c>
    return 0;
  *value = (uint16_t)val << 8 | val2;
     790:	99 81       	ldd	r25, Y+1	; 0x01
     792:	80 e0       	ldi	r24, 0x00	; 0
     794:	2a 81       	ldd	r18, Y+2	; 0x02
     796:	30 e0       	ldi	r19, 0x00	; 0
     798:	82 2b       	or	r24, r18
     79a:	93 2b       	or	r25, r19
     79c:	f7 01       	movw	r30, r14
     79e:	91 83       	std	Z+1, r25	; 0x01
     7a0:	80 83       	st	Z, r24
     7a2:	81 e0       	ldi	r24, 0x01	; 1
     7a4:	01 c0       	rjmp	.+2      	; 0x7a8 <parse_word+0x4e>
  return 1;
     7a6:	80 e0       	ldi	r24, 0x00	; 0
}
     7a8:	0f 90       	pop	r0
     7aa:	0f 90       	pop	r0
     7ac:	cf 91       	pop	r28
     7ae:	df 91       	pop	r29
     7b0:	1f 91       	pop	r17
     7b2:	0f 91       	pop	r16
     7b4:	ff 90       	pop	r15
     7b6:	ef 90       	pop	r14
     7b8:	08 95       	ret

000007ba <parse_dword>:

uint8_t parse_dword(const uint8_t *str,uint32_t *value)
{
     7ba:	ef 92       	push	r14
     7bc:	ff 92       	push	r15
     7be:	0f 93       	push	r16
     7c0:	1f 93       	push	r17
     7c2:	df 93       	push	r29
     7c4:	cf 93       	push	r28
     7c6:	00 d0       	rcall	.+0      	; 0x7c8 <parse_dword+0xe>
     7c8:	00 d0       	rcall	.+0      	; 0x7ca <parse_dword+0x10>
     7ca:	cd b7       	in	r28, 0x3d	; 61
     7cc:	de b7       	in	r29, 0x3e	; 62
     7ce:	8c 01       	movw	r16, r24
     7d0:	7b 01       	movw	r14, r22
  uint8_t val;
  if(!parse_byte(&str[0],&val))
     7d2:	be 01       	movw	r22, r28
     7d4:	6f 5f       	subi	r22, 0xFF	; 255
     7d6:	7f 4f       	sbci	r23, 0xFF	; 255
     7d8:	0e 94 7e 03 	call	0x6fc	; 0x6fc <parse_byte>
     7dc:	88 23       	and	r24, r24
     7de:	09 f4       	brne	.+2      	; 0x7e2 <parse_dword+0x28>
     7e0:	4a c0       	rjmp	.+148    	; 0x876 <parse_dword+0xbc>
    return 0;
  uint8_t val2;
  if(!parse_byte(&str[2],&val2))
     7e2:	c8 01       	movw	r24, r16
     7e4:	02 96       	adiw	r24, 0x02	; 2
     7e6:	be 01       	movw	r22, r28
     7e8:	6e 5f       	subi	r22, 0xFE	; 254
     7ea:	7f 4f       	sbci	r23, 0xFF	; 255
     7ec:	0e 94 7e 03 	call	0x6fc	; 0x6fc <parse_byte>
     7f0:	88 23       	and	r24, r24
     7f2:	09 f4       	brne	.+2      	; 0x7f6 <parse_dword+0x3c>
     7f4:	40 c0       	rjmp	.+128    	; 0x876 <parse_dword+0xbc>
    return 0;
  uint8_t val3;
  if(!parse_byte(&str[4],&val3))
     7f6:	c8 01       	movw	r24, r16
     7f8:	04 96       	adiw	r24, 0x04	; 4
     7fa:	be 01       	movw	r22, r28
     7fc:	6d 5f       	subi	r22, 0xFD	; 253
     7fe:	7f 4f       	sbci	r23, 0xFF	; 255
     800:	0e 94 7e 03 	call	0x6fc	; 0x6fc <parse_byte>
     804:	88 23       	and	r24, r24
     806:	b9 f1       	breq	.+110    	; 0x876 <parse_dword+0xbc>
    return 0;
  uint8_t val4;
  if(!parse_byte(&str[6],&val4))
     808:	c8 01       	movw	r24, r16
     80a:	06 96       	adiw	r24, 0x06	; 6
     80c:	be 01       	movw	r22, r28
     80e:	6c 5f       	subi	r22, 0xFC	; 252
     810:	7f 4f       	sbci	r23, 0xFF	; 255
     812:	0e 94 7e 03 	call	0x6fc	; 0x6fc <parse_byte>
     816:	88 23       	and	r24, r24
     818:	71 f1       	breq	.+92     	; 0x876 <parse_dword+0xbc>
    return 0;
  *value = (uint32_t)val << 24 | (uint32_t)val2 << 16 | (uint32_t)val3 << 8 | val4;
     81a:	29 81       	ldd	r18, Y+1	; 0x01
     81c:	30 e0       	ldi	r19, 0x00	; 0
     81e:	40 e0       	ldi	r20, 0x00	; 0
     820:	50 e0       	ldi	r21, 0x00	; 0
     822:	52 2f       	mov	r21, r18
     824:	44 27       	eor	r20, r20
     826:	33 27       	eor	r19, r19
     828:	22 27       	eor	r18, r18
     82a:	8a 81       	ldd	r24, Y+2	; 0x02
     82c:	90 e0       	ldi	r25, 0x00	; 0
     82e:	a0 e0       	ldi	r26, 0x00	; 0
     830:	b0 e0       	ldi	r27, 0x00	; 0
     832:	dc 01       	movw	r26, r24
     834:	99 27       	eor	r25, r25
     836:	88 27       	eor	r24, r24
     838:	28 2b       	or	r18, r24
     83a:	39 2b       	or	r19, r25
     83c:	4a 2b       	or	r20, r26
     83e:	5b 2b       	or	r21, r27
     840:	8c 81       	ldd	r24, Y+4	; 0x04
     842:	90 e0       	ldi	r25, 0x00	; 0
     844:	a0 e0       	ldi	r26, 0x00	; 0
     846:	b0 e0       	ldi	r27, 0x00	; 0
     848:	28 2b       	or	r18, r24
     84a:	39 2b       	or	r19, r25
     84c:	4a 2b       	or	r20, r26
     84e:	5b 2b       	or	r21, r27
     850:	8b 81       	ldd	r24, Y+3	; 0x03
     852:	90 e0       	ldi	r25, 0x00	; 0
     854:	a0 e0       	ldi	r26, 0x00	; 0
     856:	b0 e0       	ldi	r27, 0x00	; 0
     858:	ba 2f       	mov	r27, r26
     85a:	a9 2f       	mov	r26, r25
     85c:	98 2f       	mov	r25, r24
     85e:	88 27       	eor	r24, r24
     860:	28 2b       	or	r18, r24
     862:	39 2b       	or	r19, r25
     864:	4a 2b       	or	r20, r26
     866:	5b 2b       	or	r21, r27
     868:	f7 01       	movw	r30, r14
     86a:	20 83       	st	Z, r18
     86c:	31 83       	std	Z+1, r19	; 0x01
     86e:	42 83       	std	Z+2, r20	; 0x02
     870:	53 83       	std	Z+3, r21	; 0x03
     872:	81 e0       	ldi	r24, 0x01	; 1
     874:	01 c0       	rjmp	.+2      	; 0x878 <parse_dword+0xbe>
  return 1;
     876:	80 e0       	ldi	r24, 0x00	; 0
}
     878:	0f 90       	pop	r0
     87a:	0f 90       	pop	r0
     87c:	0f 90       	pop	r0
     87e:	0f 90       	pop	r0
     880:	cf 91       	pop	r28
     882:	df 91       	pop	r29
     884:	1f 91       	pop	r17
     886:	0f 91       	pop	r16
     888:	ff 90       	pop	r15
     88a:	ef 90       	pop	r14
     88c:	08 95       	ret

0000088e <parse_byte_dec>:

uint8_t parse_byte_dec(const uint8_t *buf, uint8_t *out)
{
     88e:	db 01       	movw	r26, r22
     890:	fc 01       	movw	r30, r24
     892:	30 e0       	ldi	r19, 0x00	; 0
     894:	20 e0       	ldi	r18, 0x00	; 0
    uint8_t c = buf[digits];
    if((c<'0')||(c>'9')) {
      break;
    }
    c -= '0';
    value *= 10;
     896:	4a e0       	ldi	r20, 0x0A	; 10
{
  uint8_t value = 0;
  uint8_t digits = 0;
  while(digits < 3) {
    uint8_t c = buf[digits];
    if((c<'0')||(c>'9')) {
     898:	80 81       	ld	r24, Z
     89a:	98 2f       	mov	r25, r24
     89c:	90 53       	subi	r25, 0x30	; 48
     89e:	9a 30       	cpi	r25, 0x0A	; 10
     8a0:	50 f4       	brcc	.+20     	; 0x8b6 <parse_byte_dec+0x28>
      break;
    }
    c -= '0';
    value *= 10;
     8a2:	34 9f       	mul	r19, r20
     8a4:	80 2d       	mov	r24, r0
     8a6:	11 24       	eor	r1, r1
    value += c;
     8a8:	38 2f       	mov	r19, r24
     8aa:	39 0f       	add	r19, r25
    digits++;
     8ac:	2f 5f       	subi	r18, 0xFF	; 255
     8ae:	31 96       	adiw	r30, 0x01	; 1

uint8_t parse_byte_dec(const uint8_t *buf, uint8_t *out)
{
  uint8_t value = 0;
  uint8_t digits = 0;
  while(digits < 3) {
     8b0:	23 30       	cpi	r18, 0x03	; 3
     8b2:	91 f7       	brne	.-28     	; 0x898 <parse_byte_dec+0xa>
     8b4:	01 c0       	rjmp	.+2      	; 0x8b8 <parse_byte_dec+0x2a>
    c -= '0';
    value *= 10;
    value += c;
    digits++;
  }
  if(digits > 0) {
     8b6:	21 11       	cpse	r18, r1
    *out = value;
     8b8:	3c 93       	st	X, r19
  }
  return digits;
}
     8ba:	82 2f       	mov	r24, r18
     8bc:	08 95       	ret

000008be <trigger_request>:
static uint8_t flags;
static uint8_t req_is_pending;

static void trigger_request(void)
{
  if(!req_is_pending) {
     8be:	80 91 3f 01 	lds	r24, 0x013F
     8c2:	88 23       	and	r24, r24
     8c4:	29 f4       	brne	.+10     	; 0x8d0 <trigger_request+0x12>
    req_is_pending = 1;
     8c6:	81 e0       	ldi	r24, 0x01	; 1
     8c8:	80 93 3f 01 	sts	0x013F, r24
    pb_proto_request_recv();
     8cc:	0e 94 39 0d 	call	0x1a72	; 0x1a72 <pb_proto_request_recv>
     8d0:	08 95       	ret

000008d2 <bridge_loop>:
}

// ---------- loop ----------

uint8_t bridge_loop(void)
{
     8d2:	cf 92       	push	r12
     8d4:	df 92       	push	r13
     8d6:	ff 92       	push	r15
     8d8:	0f 93       	push	r16
     8da:	1f 93       	push	r17
     8dc:	df 93       	push	r29
     8de:	cf 93       	push	r28
     8e0:	00 d0       	rcall	.+0      	; 0x8e2 <bridge_loop+0x10>
     8e2:	cd b7       	in	r28, 0x3d	; 61
     8e4:	de b7       	in	r29, 0x3e	; 62
  uint8_t result = CMD_WORKER_IDLE;

  // NOTE: UART - time_stamp_spc() [BRIDGE] on\r\n

  // Associate protocol fns with given ptrs
  pb_proto_init(fill_pkt, proc_pkt, pkt_buf, PKT_BUF_SIZE);
     8e6:	8b e1       	ldi	r24, 0x1B	; 27
     8e8:	95 e0       	ldi	r25, 0x05	; 5
     8ea:	6a ec       	ldi	r22, 0xCA	; 202
     8ec:	74 e0       	ldi	r23, 0x04	; 4
     8ee:	46 e8       	ldi	r20, 0x86	; 134
     8f0:	51 e0       	ldi	r21, 0x01	; 1
     8f2:	2a ee       	ldi	r18, 0xEA	; 234
     8f4:	35 e0       	ldi	r19, 0x05	; 5
     8f6:	0e 94 cd 09 	call	0x139a	; 0x139a <pb_proto_init>

  // Init ENC28j60
  pio_init(param.mac_addr, pio_util_get_init_flags());
     8fa:	0e 94 17 0f 	call	0x1e2e	; 0x1e2e <pio_util_get_init_flags>
     8fe:	68 2f       	mov	r22, r24
     900:	03 e6       	ldi	r16, 0x63	; 99
     902:	11 e0       	ldi	r17, 0x01	; 1
     904:	c8 01       	movw	r24, r16
     906:	0e 94 56 0e 	call	0x1cac	; 0x1cac <pio_init>

  // Reset stats
  stats_reset();
     90a:	0e 94 1f 13 	call	0x263e	; 0x263e <stats_reset>

  // Reset flags & request state
  flags = 0;
     90e:	10 92 3e 01 	sts	0x013E, r1
  req_is_pending = 0;
     912:	10 92 3f 01 	sts	0x013F, r1

  uint8_t flow_control = param.flow_ctl;
     916:	f8 01       	movw	r30, r16
     918:	f6 80       	ldd	r15, Z+6	; 0x06
     91a:	10 e0       	ldi	r17, 0x00	; 0
        trigger_request();
      }
      else {
				// offline: get and drop pio packet
        uint16_t size;
        pio_util_recv_packet(&size);
     91c:	6e 01       	movw	r12, r28
     91e:	08 94       	sec
     920:	c1 1c       	adc	r12, r1
     922:	d1 1c       	adc	r13, r1
     924:	24 c0       	rjmp	.+72     	; 0x96e <__stack+0x6f>
  uint8_t first = 1;
  while(run_mode == RUN_MODE_BRIDGE) {
    // NOTE: UART command handling was here

    // Calls pb_proto_handle - this is where PAR communication is done
    pb_util_handle();
     926:	0e 94 26 0e 	call	0x1c4c	; 0x1c4c <pb_util_handle>

    // incoming packet via PIO available?
    uint8_t n = pio_has_recv();
     92a:	0e 94 a7 0e 	call	0x1d4e	; 0x1d4e <pio_has_recv>
     92e:	08 2f       	mov	r16, r24
    if(n>0) {
     930:	88 23       	and	r24, r24
     932:	51 f0       	breq	.+20     	; 0x948 <__stack+0x49>
      if(first) {
        first = 0;
        // NOTE: UART - time_stamp_spc() FIRST INCOMING!\r\n
      }

      if(flags & FLAG_ONLINE) {
     934:	80 91 3e 01 	lds	r24, 0x013E
     938:	80 ff       	sbrs	r24, 0
     93a:	03 c0       	rjmp	.+6      	; 0x942 <__stack+0x43>
				// if we are online then request the packet receiption
        // if no request is pending then request it
        trigger_request();
     93c:	0e 94 5f 04 	call	0x8be	; 0x8be <trigger_request>
     940:	03 c0       	rjmp	.+6      	; 0x948 <__stack+0x49>
      }
      else {
				// offline: get and drop pio packet
        uint16_t size;
        pio_util_recv_packet(&size);
     942:	c6 01       	movw	r24, r12
     944:	0e 94 11 10 	call	0x2022	; 0x2022 <pio_util_recv_packet>
        // NOTE: UART - time_stamp_spc() OFFLINE DROP: hex_word(size)\r\n
      }
    }

    // flow control
    if(flow_control) {
     948:	ff 20       	and	r15, r15
     94a:	89 f0       	breq	.+34     	; 0x96e <__stack+0x6f>
      // flow limited
      if(limit_flow) {
     94c:	11 23       	and	r17, r17
     94e:	41 f0       	breq	.+16     	; 0x960 <__stack+0x61>
        // disable again?
        if(n==0) {
     950:	00 23       	and	r16, r16
     952:	69 f4       	brne	.+26     	; 0x96e <__stack+0x6f>
          pio_control(PIO_CONTROL_FLOW, 0);
     954:	80 e0       	ldi	r24, 0x00	; 0
     956:	60 e0       	ldi	r22, 0x00	; 0
     958:	0e 94 be 0e 	call	0x1d7c	; 0x1d7c <pio_control>
     95c:	10 e0       	ldi	r17, 0x00	; 0
     95e:	07 c0       	rjmp	.+14     	; 0x96e <__stack+0x6f>
        }
      }
      // no flow limit
      else {
        // enable?
        if(n>1) {
     960:	02 30       	cpi	r16, 0x02	; 2
     962:	28 f0       	brcs	.+10     	; 0x96e <__stack+0x6f>
          pio_control(PIO_CONTROL_FLOW, 1);
     964:	80 e0       	ldi	r24, 0x00	; 0
     966:	61 e0       	ldi	r22, 0x01	; 1
     968:	0e 94 be 0e 	call	0x1d7c	; 0x1d7c <pio_control>
     96c:	11 e0       	ldi	r17, 0x01	; 1
  req_is_pending = 0;

  uint8_t flow_control = param.flow_ctl;
  uint8_t limit_flow = 0;
  uint8_t first = 1;
  while(run_mode == RUN_MODE_BRIDGE) {
     96e:	80 91 42 01 	lds	r24, 0x0142
     972:	88 23       	and	r24, r24
     974:	c1 f2       	breq	.-80     	; 0x926 <__stack+0x27>
        }
      }
    }
  }

  stats_dump_all();
     976:	0e 94 5d 13 	call	0x26ba	; 0x26ba <stats_dump_all>
  pio_exit();
     97a:	0e 94 84 0e 	call	0x1d08	; 0x1d08 <pio_exit>

	// NOTE: UART - time_stamp_spc() [BRIDGE] off\r\n

  return result;
}
     97e:	80 e0       	ldi	r24, 0x00	; 0
     980:	0f 90       	pop	r0
     982:	0f 90       	pop	r0
     984:	cf 91       	pop	r28
     986:	df 91       	pop	r29
     988:	1f 91       	pop	r17
     98a:	0f 91       	pop	r16
     98c:	ff 90       	pop	r15
     98e:	df 90       	pop	r13
     990:	cf 90       	pop	r12
     992:	08 95       	ret

00000994 <proc_pkt>:
 * @param buf Buffer containing sent data
 * @param size Packet length
 * @return Always PBPROTO_STATUS_OK
 */
static uint8_t proc_pkt(const uint8_t *buf, uint16_t size)
{
     994:	0f 93       	push	r16
     996:	1f 93       	push	r17
     998:	cf 93       	push	r28
     99a:	df 93       	push	r29
     99c:	ec 01       	movw	r28, r24
     99e:	8b 01       	movw	r16, r22
     9a0:	0c 96       	adiw	r24, 0x0c	; 12
     9a2:	0e 94 fb 07 	call	0xff6	; 0xff6 <net_get_word>
  // get eth type
  uint16_t eth_type = eth_get_pkt_type(buf);
  switch(eth_type) {
     9a6:	2f ef       	ldi	r18, 0xFF	; 255
     9a8:	8e 3f       	cpi	r24, 0xFE	; 254
     9aa:	92 07       	cpc	r25, r18
     9ac:	21 f1       	breq	.+72     	; 0x9f6 <proc_pkt+0x62>
     9ae:	2f ef       	ldi	r18, 0xFF	; 255
     9b0:	8f 3f       	cpi	r24, 0xFF	; 255
     9b2:	92 07       	cpc	r25, r18
     9b4:	20 f4       	brcc	.+8      	; 0x9be <proc_pkt+0x2a>
     9b6:	8d 5f       	subi	r24, 0xFD	; 253
     9b8:	9f 4f       	sbci	r25, 0xFF	; 255
     9ba:	59 f5       	brne	.+86     	; 0xa12 <proc_pkt+0x7e>
     9bc:	22 c0       	rjmp	.+68     	; 0xa02 <proc_pkt+0x6e>
 * @param buf Pointer to magic packet.
 */
static void magic_online(const uint8_t *buf)
{
	// NOTE: UART - time_stamp_spc() [MAGIC] online \r\n
  flags |= FLAG_ONLINE | FLAG_FIRST_TRANSFER;
     9be:	80 91 3e 01 	lds	r24, 0x013E
     9c2:	85 60       	ori	r24, 0x05	; 5
     9c4:	80 93 3e 01 	sts	0x013E, r24
     9c8:	26 96       	adiw	r28, 0x06	; 6

  // validate mac address and if it does not match then reconfigure PIO
  const uint8_t *src_mac = eth_get_src_mac(buf);
  if(!net_compare_mac(param.mac_addr, src_mac)) {
     9ca:	83 e6       	ldi	r24, 0x63	; 99
     9cc:	91 e0       	ldi	r25, 0x01	; 1
     9ce:	be 01       	movw	r22, r28
     9d0:	0e 94 47 08 	call	0x108e	; 0x108e <net_compare_mac>
     9d4:	88 23       	and	r24, r24
     9d6:	49 f5       	brne	.+82     	; 0xa2a <proc_pkt+0x96>
    // update mac param and save
    net_copy_mac(src_mac, param.mac_addr);
     9d8:	03 e6       	ldi	r16, 0x63	; 99
     9da:	11 e0       	ldi	r17, 0x01	; 1
     9dc:	ce 01       	movw	r24, r28
     9de:	b8 01       	movw	r22, r16
     9e0:	0e 94 db 07 	call	0xfb6	; 0xfb6 <net_copy_mac>
    param_save();
     9e4:	0e 94 b2 09 	call	0x1364	; 0x1364 <param_save>

    // re-configure PIO
    pio_exit();
     9e8:	0e 94 84 0e 	call	0x1d08	; 0x1d08 <pio_exit>
    pio_init(param.mac_addr, PIO_INIT_BROAD_CAST);
     9ec:	c8 01       	movw	r24, r16
     9ee:	64 e0       	ldi	r22, 0x04	; 4
     9f0:	0e 94 56 0e 	call	0x1cac	; 0x1cac <pio_init>
     9f4:	1a c0       	rjmp	.+52     	; 0xa2a <proc_pkt+0x96>
 * Disables ethernet communication.
 */
static void magic_offline(void)
{
	// NOTE: UART - time_stamp_spc() [MAGIC] offline
  flags &= ~FLAG_ONLINE;
     9f6:	80 91 3e 01 	lds	r24, 0x013E
     9fa:	8e 7f       	andi	r24, 0xFE	; 254
     9fc:	80 93 3e 01 	sts	0x013E, r24
     a00:	14 c0       	rjmp	.+40     	; 0xa2a <proc_pkt+0x96>
}

static void magic_loopback(uint16_t size)
{
  flags |= FLAG_SEND_MAGIC;
     a02:	80 91 3e 01 	lds	r24, 0x013E
     a06:	82 60       	ori	r24, 0x02	; 2
     a08:	80 93 3e 01 	sts	0x013E, r24
  trigger_request();
     a0c:	0e 94 5f 04 	call	0x8be	; 0x8be <trigger_request>
     a10:	0c c0       	rjmp	.+24     	; 0xa2a <proc_pkt+0x96>
    case ETH_TYPE_MAGIC_LOOPBACK:
      magic_loopback(size);
      break;
    default:
      // send packet via pio
      pio_util_send_packet(size);
     a12:	c8 01       	movw	r24, r16
     a14:	0e 94 91 0f 	call	0x1f22	; 0x1f22 <pio_util_send_packet>
      // if a packet arrived and we are not online then request online state
      if((flags & FLAG_ONLINE)==0) {
     a18:	80 91 3e 01 	lds	r24, 0x013E
     a1c:	80 fd       	sbrc	r24, 0
     a1e:	05 c0       	rjmp	.+10     	; 0xa2a <proc_pkt+0x96>
static void request_magic(void)
{
	// NOTE: UART - time_stamp_spc() [MAGIC] request\r\n

  // request receive
  flags |= FLAG_SEND_MAGIC | FLAG_FIRST_TRANSFER;
     a20:	86 60       	ori	r24, 0x06	; 6
     a22:	80 93 3e 01 	sts	0x013E, r24
  trigger_request();
     a26:	0e 94 5f 04 	call	0x8be	; 0x8be <trigger_request>
        request_magic();
      }
      break;
  }
  return PBPROTO_STATUS_OK;
}
     a2a:	81 e0       	ldi	r24, 0x01	; 1
     a2c:	df 91       	pop	r29
     a2e:	cf 91       	pop	r28
     a30:	1f 91       	pop	r17
     a32:	0f 91       	pop	r16
     a34:	08 95       	ret

00000a36 <fill_pkt>:
// ----- packet callbacks -----

// the Amiga requests a new packet

static uint8_t fill_pkt(uint8_t *buf, uint16_t max_size, uint16_t *size)
{
     a36:	0f 93       	push	r16
     a38:	1f 93       	push	r17
     a3a:	cf 93       	push	r28
     a3c:	df 93       	push	r29
     a3e:	ea 01       	movw	r28, r20
  // need to send a magic?
  if((flags & FLAG_SEND_MAGIC) == FLAG_SEND_MAGIC) {
     a40:	80 91 3e 01 	lds	r24, 0x013E
     a44:	81 ff       	sbrs	r24, 1
     a46:	1c c0       	rjmp	.+56     	; 0xa80 <fill_pkt+0x4a>
    flags &= ~FLAG_SEND_MAGIC;
     a48:	8d 7f       	andi	r24, 0xFD	; 253
     a4a:	80 93 3e 01 	sts	0x013E, r24
     a4e:	06 e8       	ldi	r16, 0x86	; 134
     a50:	11 e0       	ldi	r17, 0x01	; 1
     a52:	80 e0       	ldi	r24, 0x00	; 0
     a54:	91 e0       	ldi	r25, 0x01	; 1
     a56:	b8 01       	movw	r22, r16
     a58:	0e 94 db 07 	call	0xfb6	; 0xfb6 <net_copy_mac>

    // Build magic packet
    // Target (bcast) MAC, src (plipbox) MAC, 0xFFFF => size: 14 bytes
    net_copy_bcast_mac(pkt_buf + ETH_OFF_TGT_MAC);
    net_copy_mac(param.mac_addr, pkt_buf + ETH_OFF_SRC_MAC);
     a5c:	b8 01       	movw	r22, r16
     a5e:	6a 5f       	subi	r22, 0xFA	; 250
     a60:	7f 4f       	sbci	r23, 0xFF	; 255
     a62:	83 e6       	ldi	r24, 0x63	; 99
     a64:	91 e0       	ldi	r25, 0x01	; 1
     a66:	0e 94 db 07 	call	0xfb6	; 0xfb6 <net_copy_mac>
    net_put_word(pkt_buf + ETH_OFF_TYPE, ETH_TYPE_MAGIC_ONLINE);
     a6a:	c8 01       	movw	r24, r16
     a6c:	0c 96       	adiw	r24, 0x0c	; 12
     a6e:	6f ef       	ldi	r22, 0xFF	; 255
     a70:	7f ef       	ldi	r23, 0xFF	; 255
     a72:	0e 94 05 08 	call	0x100a	; 0x100a <net_put_word>

    *size = ETH_HDR_SIZE;
     a76:	8e e0       	ldi	r24, 0x0E	; 14
     a78:	90 e0       	ldi	r25, 0x00	; 0
     a7a:	99 83       	std	Y+1, r25	; 0x01
     a7c:	88 83       	st	Y, r24
     a7e:	0a c0       	rjmp	.+20     	; 0xa94 <fill_pkt+0x5e>
  }
  else {
    // pending PIO packet?
    pio_util_recv_packet(size);
     a80:	ca 01       	movw	r24, r20
     a82:	0e 94 11 10 	call	0x2022	; 0x2022 <pio_util_recv_packet>

    // report first packet transfer
    if(flags & FLAG_FIRST_TRANSFER) {
     a86:	80 91 3e 01 	lds	r24, 0x013E
     a8a:	82 ff       	sbrs	r24, 2
     a8c:	03 c0       	rjmp	.+6      	; 0xa94 <fill_pkt+0x5e>
      flags &= ~FLAG_FIRST_TRANSFER;
     a8e:	8b 7f       	andi	r24, 0xFB	; 251
     a90:	80 93 3e 01 	sts	0x013E, r24
      // NOTE: UART - time_stamp_spc() FIRST TRANSFER!\r\n
    }
  }

  req_is_pending = 0;
     a94:	10 92 3f 01 	sts	0x013F, r1

  return PBPROTO_STATUS_OK;
}
     a98:	81 e0       	ldi	r24, 0x01	; 1
     a9a:	df 91       	pop	r29
     a9c:	cf 91       	pop	r28
     a9e:	1f 91       	pop	r17
     aa0:	0f 91       	pop	r16
     aa2:	08 95       	ret

00000aa4 <bridge_test_loop>:

  return PBPROTO_STATUS_OK;
}

uint8_t bridge_test_loop(void)
{
     aa4:	0f 93       	push	r16
     aa6:	1f 93       	push	r17
     aa8:	df 93       	push	r29
     aaa:	cf 93       	push	r28
     aac:	00 d0       	rcall	.+0      	; 0xaae <bridge_test_loop+0xa>
     aae:	cd b7       	in	r28, 0x3d	; 61
     ab0:	de b7       	in	r29, 0x3e	; 62
  uint8_t result = CMD_WORKER_IDLE;

	// NOTE: UART - time_stamp_spc [BRIDGE_TEST] on\r\n

  pb_proto_init(fill_pkt, proc_pkt, pkt_buf, PKT_BUF_SIZE);
     ab2:	8f e9       	ldi	r24, 0x9F	; 159
     ab4:	95 e0       	ldi	r25, 0x05	; 5
     ab6:	6c eb       	ldi	r22, 0xBC	; 188
     ab8:	75 e0       	ldi	r23, 0x05	; 5
     aba:	46 e8       	ldi	r20, 0x86	; 134
     abc:	51 e0       	ldi	r21, 0x01	; 1
     abe:	2a ee       	ldi	r18, 0xEA	; 234
     ac0:	35 e0       	ldi	r19, 0x05	; 5
     ac2:	0e 94 cd 09 	call	0x139a	; 0x139a <pb_proto_init>
  pio_init(param.mac_addr, pio_util_get_init_flags());
     ac6:	0e 94 17 0f 	call	0x1e2e	; 0x1e2e <pio_util_get_init_flags>
     aca:	68 2f       	mov	r22, r24
     acc:	83 e6       	ldi	r24, 0x63	; 99
     ace:	91 e0       	ldi	r25, 0x01	; 1
     ad0:	0e 94 56 0e 	call	0x1cac	; 0x1cac <pio_init>
  stats_reset();
     ad4:	0e 94 1f 13 	call	0x263e	; 0x263e <stats_reset>
    pb_util_handle();

    // incoming packet via PIO?
    if(pio_has_recv()) {
      uint16_t size;
      if(pio_util_recv_packet(&size) == PIO_OK) {
     ad8:	8e 01       	movw	r16, r28
     ada:	0f 5f       	subi	r16, 0xFF	; 255
     adc:	1f 4f       	sbci	r17, 0xFF	; 255
     ade:	1f c0       	rjmp	.+62     	; 0xb1e <bridge_test_loop+0x7a>
  while(run_mode == RUN_MODE_BRIDGE_TEST) {
    // handle commands
    // NOTE: cmd_worker was here, reset by loop break

    // handle pbproto
    pb_util_handle();
     ae0:	0e 94 26 0e 	call	0x1c4c	; 0x1c4c <pb_util_handle>

    // incoming packet via PIO?
    if(pio_has_recv()) {
     ae4:	0e 94 a7 0e 	call	0x1d4e	; 0x1d4e <pio_has_recv>
     ae8:	88 23       	and	r24, r24
     aea:	c9 f0       	breq	.+50     	; 0xb1e <bridge_test_loop+0x7a>
      uint16_t size;
      if(pio_util_recv_packet(&size) == PIO_OK) {
     aec:	c8 01       	movw	r24, r16
     aee:	0e 94 11 10 	call	0x2022	; 0x2022 <pio_util_recv_packet>
     af2:	88 23       	and	r24, r24
     af4:	a1 f4       	brne	.+40     	; 0xb1e <bridge_test_loop+0x7a>
        // handle ARP?
        if(!pio_util_handle_arp(size)) {
     af6:	89 81       	ldd	r24, Y+1	; 0x01
     af8:	9a 81       	ldd	r25, Y+2	; 0x02
     afa:	0e 94 be 0f 	call	0x1f7c	; 0x1f7c <pio_util_handle_arp>
     afe:	88 23       	and	r24, r24
     b00:	71 f4       	brne	.+28     	; 0xb1e <bridge_test_loop+0x7a>
          // is it a UDP test packet?
          if(pio_util_handle_udp_test(size)) {
     b02:	89 81       	ldd	r24, Y+1	; 0x01
     b04:	9a 81       	ldd	r25, Y+2	; 0x02
     b06:	0e 94 24 0f 	call	0x1e48	; 0x1e48 <pio_util_handle_udp_test>
     b0a:	88 23       	and	r24, r24
     b0c:	41 f0       	breq	.+16     	; 0xb1e <bridge_test_loop+0x7a>
            if(pio_pkt_size != 0) {
							// NOTE: UART - OVERWRITE?!\r\n
            }

            // request receive
            pio_pkt_size = size;
     b0e:	89 81       	ldd	r24, Y+1	; 0x01
     b10:	9a 81       	ldd	r25, Y+2	; 0x02
     b12:	90 93 41 01 	sts	0x0141, r25
     b16:	80 93 40 01 	sts	0x0140, r24
            pb_proto_request_recv();
     b1a:	0e 94 39 0d 	call	0x1a72	; 0x1a72 <pb_proto_request_recv>

  pb_proto_init(fill_pkt, proc_pkt, pkt_buf, PKT_BUF_SIZE);
  pio_init(param.mac_addr, pio_util_get_init_flags());
  stats_reset();

  while(run_mode == RUN_MODE_BRIDGE_TEST) {
     b1e:	80 91 42 01 	lds	r24, 0x0142
     b22:	81 30       	cpi	r24, 0x01	; 1
     b24:	e9 f2       	breq	.-70     	; 0xae0 <bridge_test_loop+0x3c>
        }
      }
    }
  }

  stats_dump_all();
     b26:	0e 94 5d 13 	call	0x26ba	; 0x26ba <stats_dump_all>
  pio_exit();
     b2a:	0e 94 84 0e 	call	0x1d08	; 0x1d08 <pio_exit>

  // NOTE: UART - time_stamp_spc() [BRIDGE_TEST] off\r\n

  return result;
}
     b2e:	80 e0       	ldi	r24, 0x00	; 0
     b30:	0f 90       	pop	r0
     b32:	0f 90       	pop	r0
     b34:	cf 91       	pop	r28
     b36:	df 91       	pop	r29
     b38:	1f 91       	pop	r17
     b3a:	0f 91       	pop	r16
     b3c:	08 95       	ret

00000b3e <fill_pkt>:
/* a RECV command arrived from Amiga.
   this should only happen if we got a packet here from PIO
   in the first place
*/
static uint8_t fill_pkt(uint8_t *buf, uint16_t max_size, uint16_t *size)
{
     b3e:	9c 01       	movw	r18, r24
     b40:	fa 01       	movw	r30, r20
  *size = pio_pkt_size;
     b42:	80 91 40 01 	lds	r24, 0x0140
     b46:	90 91 41 01 	lds	r25, 0x0141
     b4a:	91 83       	std	Z+1, r25	; 0x01
     b4c:	80 83       	st	Z, r24
  if(*size > max_size) {
     b4e:	68 17       	cp	r22, r24
     b50:	79 07       	cpc	r23, r25
     b52:	10 f4       	brcc	.+4      	; 0xb58 <fill_pkt+0x1a>
     b54:	85 e0       	ldi	r24, 0x05	; 5
     b56:	08 95       	ret
    return PBPROTO_STATUS_PACKET_TOO_LARGE;
  }

  // in test mode 0 send via internal device loopback
  if(param.test_mode == 0) {
     b58:	80 91 75 01 	lds	r24, 0x0175
     b5c:	88 23       	and	r24, r24
     b5e:	31 f4       	brne	.+12     	; 0xb6c <fill_pkt+0x2e>
    // switch eth type to magic for loop back
    net_put_word(buf + ETH_OFF_TYPE, ETH_TYPE_MAGIC_LOOPBACK);
     b60:	c9 01       	movw	r24, r18
     b62:	0c 96       	adiw	r24, 0x0c	; 12
     b64:	6d ef       	ldi	r22, 0xFD	; 253
     b66:	7f ef       	ldi	r23, 0xFF	; 255
     b68:	0e 94 05 08 	call	0x100a	; 0x100a <net_put_word>
  }

  // consumed packet
  pio_pkt_size = 0;
     b6c:	10 92 41 01 	sts	0x0141, r1
     b70:	10 92 40 01 	sts	0x0140, r1
     b74:	81 e0       	ldi	r24, 0x01	; 1

  return PBPROTO_STATUS_OK;
}
     b76:	08 95       	ret

00000b78 <proc_pkt>:

/* a SEND command arrvied from Amiga.
   we got our packet back. forward to PIO
*/
static uint8_t proc_pkt(const uint8_t *buf, uint16_t size)
{
     b78:	cf 93       	push	r28
     b7a:	df 93       	push	r29
     b7c:	eb 01       	movw	r28, r22
  // make sure its the expected packet type
  uint16_t type = net_get_word(pkt_buf + ETH_OFF_TYPE);
     b7e:	82 e9       	ldi	r24, 0x92	; 146
     b80:	91 e0       	ldi	r25, 0x01	; 1
     b82:	0e 94 fb 07 	call	0xff6	; 0xff6 <net_get_word>
     b86:	9c 01       	movw	r18, r24

  // in test mode 0 packet was sent by internal device loopback
  if(param.test_mode == 0) {
     b88:	80 91 75 01 	lds	r24, 0x0175
     b8c:	88 23       	and	r24, r24
     b8e:	51 f4       	brne	.+20     	; 0xba4 <proc_pkt+0x2c>
    if(type != ETH_TYPE_MAGIC_LOOPBACK) {
     b90:	2d 5f       	subi	r18, 0xFD	; 253
     b92:	3f 4f       	sbci	r19, 0xFF	; 255
     b94:	69 f4       	brne	.+26     	; 0xbb0 <proc_pkt+0x38>
			// NOTE: UART - NO MAGIC!!\r\n
      return PBPROTO_STATUS_OK;
    } else {
      // switch eth type back to IPv4
      net_put_word(pkt_buf + ETH_OFF_TYPE, ETH_TYPE_IPV4);
     b96:	82 e9       	ldi	r24, 0x92	; 146
     b98:	91 e0       	ldi	r25, 0x01	; 1
     b9a:	60 e0       	ldi	r22, 0x00	; 0
     b9c:	78 e0       	ldi	r23, 0x08	; 8
     b9e:	0e 94 05 08 	call	0x100a	; 0x100a <net_put_word>
     ba2:	03 c0       	rjmp	.+6      	; 0xbaa <proc_pkt+0x32>
    }
  } else {
    if(type != ETH_TYPE_IPV4) {
     ba4:	20 50       	subi	r18, 0x00	; 0
     ba6:	38 40       	sbci	r19, 0x08	; 8
     ba8:	19 f4       	brne	.+6      	; 0xbb0 <proc_pkt+0x38>
      return PBPROTO_STATUS_OK;
    }
  }

  // send packet via pio
  pio_util_send_packet(size);
     baa:	ce 01       	movw	r24, r28
     bac:	0e 94 91 0f 	call	0x1f22	; 0x1f22 <pio_util_send_packet>

  return PBPROTO_STATUS_OK;
}
     bb0:	81 e0       	ldi	r24, 0x01	; 1
     bb2:	df 91       	pop	r29
     bb4:	cf 91       	pop	r28
     bb6:	08 95       	ret

00000bb8 <cmd_quit>:
#include "stats.h"

COMMAND(cmd_quit)
{
  return CMD_QUIT;
}
     bb8:	81 e0       	ldi	r24, 0x01	; 1
     bba:	08 95       	ret

00000bbc <cmd_device_reset>:

COMMAND(cmd_device_reset)
{
  return CMD_RESET;
}
     bbc:	82 e0       	ldi	r24, 0x02	; 2
     bbe:	08 95       	ret

00000bc0 <cmd_version>:

COMMAND(cmd_version)
{
	// NOTE: UART - VERSION BUILD_DATE\r\n
  return CMD_OK;
}
     bc0:	80 e0       	ldi	r24, 0x00	; 0
     bc2:	08 95       	ret

00000bc4 <cmd_param_ip_addr>:
    return CMD_PARSE_ERROR;
  }
}

COMMAND(cmd_param_ip_addr)
{
     bc4:	df 93       	push	r29
     bc6:	cf 93       	push	r28
     bc8:	00 d0       	rcall	.+0      	; 0xbca <cmd_param_ip_addr+0x6>
     bca:	00 d0       	rcall	.+0      	; 0xbcc <cmd_param_ip_addr+0x8>
     bcc:	cd b7       	in	r28, 0x3d	; 61
     bce:	de b7       	in	r29, 0x3e	; 62
     bd0:	fb 01       	movw	r30, r22
  uint8_t ip[4];

  if(net_parse_ip(argv[1], ip)) {
     bd2:	82 81       	ldd	r24, Z+2	; 0x02
     bd4:	93 81       	ldd	r25, Z+3	; 0x03
     bd6:	be 01       	movw	r22, r28
     bd8:	6f 5f       	subi	r22, 0xFF	; 255
     bda:	7f 4f       	sbci	r23, 0xFF	; 255
     bdc:	0e 94 cf 08 	call	0x119e	; 0x119e <net_parse_ip>
     be0:	88 23       	and	r24, r24
     be2:	11 f4       	brne	.+4      	; 0xbe8 <cmd_param_ip_addr+0x24>
     be4:	81 e1       	ldi	r24, 0x11	; 17
     be6:	07 c0       	rjmp	.+14     	; 0xbf6 <cmd_param_ip_addr+0x32>
    net_copy_ip(ip, param.test_ip);
     be8:	ce 01       	movw	r24, r28
     bea:	01 96       	adiw	r24, 0x01	; 1
     bec:	6f e6       	ldi	r22, 0x6F	; 111
     bee:	71 e0       	ldi	r23, 0x01	; 1
     bf0:	0e 94 ea 07 	call	0xfd4	; 0xfd4 <net_copy_ip>
     bf4:	80 e0       	ldi	r24, 0x00	; 0
    return CMD_OK;
  } else {
    return CMD_PARSE_ERROR;
  }
}
     bf6:	0f 90       	pop	r0
     bf8:	0f 90       	pop	r0
     bfa:	0f 90       	pop	r0
     bfc:	0f 90       	pop	r0
     bfe:	cf 91       	pop	r28
     c00:	df 91       	pop	r29
     c02:	08 95       	ret

00000c04 <cmd_param_word>:
  }
  return result;
}

COMMAND(cmd_param_word)
{
     c04:	0f 93       	push	r16
     c06:	1f 93       	push	r17
     c08:	df 93       	push	r29
     c0a:	cf 93       	push	r28
     c0c:	00 d0       	rcall	.+0      	; 0xc0e <cmd_param_word+0xa>
     c0e:	cd b7       	in	r28, 0x3d	; 61
     c10:	de b7       	in	r29, 0x3e	; 62
     c12:	28 2f       	mov	r18, r24
     c14:	db 01       	movw	r26, r22
  uint8_t group = argv[0][0];
     c16:	ed 91       	ld	r30, X+
     c18:	fc 91       	ld	r31, X
     c1a:	11 97       	sbiw	r26, 0x01	; 1
  uint8_t type = argv[0][1];
     c1c:	91 81       	ldd	r25, Z+1	; 0x01
  uint16_t *val = 0;

  if(group == 't') {
     c1e:	80 81       	ld	r24, Z
     c20:	84 37       	cpi	r24, 0x74	; 116
     c22:	19 f5       	brne	.+70     	; 0xc6a <cmd_param_word+0x66>
    switch(type) {
     c24:	90 37       	cpi	r25, 0x70	; 112
     c26:	59 f0       	breq	.+22     	; 0xc3e <cmd_param_word+0x3a>
     c28:	94 37       	cpi	r25, 0x74	; 116
     c2a:	19 f0       	breq	.+6      	; 0xc32 <cmd_param_word+0x2e>
     c2c:	9c 36       	cpi	r25, 0x6C	; 108
     c2e:	e9 f4       	brne	.+58     	; 0xc6a <cmd_param_word+0x66>
     c30:	03 c0       	rjmp	.+6      	; 0xc38 <cmd_param_word+0x34>
     c32:	0d e6       	ldi	r16, 0x6D	; 109
     c34:	11 e0       	ldi	r17, 0x01	; 1
     c36:	05 c0       	rjmp	.+10     	; 0xc42 <cmd_param_word+0x3e>
     c38:	0b e6       	ldi	r16, 0x6B	; 107
     c3a:	11 e0       	ldi	r17, 0x01	; 1
     c3c:	02 c0       	rjmp	.+4      	; 0xc42 <cmd_param_word+0x3e>
     c3e:	03 e7       	ldi	r16, 0x73	; 115
     c40:	11 e0       	ldi	r17, 0x01	; 1
  }
  else {
    return CMD_PARSE_ERROR;
  }

  if(argc == 1) {
     c42:	21 30       	cpi	r18, 0x01	; 1
     c44:	91 f0       	breq	.+36     	; 0xc6a <cmd_param_word+0x66>
    return CMD_PARSE_ERROR;
  } else {
    uint16_t new_val;
    if(parse_word(argv[1],&new_val)) {
     c46:	12 96       	adiw	r26, 0x02	; 2
     c48:	8d 91       	ld	r24, X+
     c4a:	9c 91       	ld	r25, X
     c4c:	13 97       	sbiw	r26, 0x03	; 3
     c4e:	be 01       	movw	r22, r28
     c50:	6f 5f       	subi	r22, 0xFF	; 255
     c52:	7f 4f       	sbci	r23, 0xFF	; 255
     c54:	0e 94 ad 03 	call	0x75a	; 0x75a <parse_word>
     c58:	88 23       	and	r24, r24
     c5a:	39 f0       	breq	.+14     	; 0xc6a <cmd_param_word+0x66>
      *val = new_val;
     c5c:	89 81       	ldd	r24, Y+1	; 0x01
     c5e:	9a 81       	ldd	r25, Y+2	; 0x02
     c60:	f8 01       	movw	r30, r16
     c62:	91 83       	std	Z+1, r25	; 0x01
     c64:	80 83       	st	Z, r24
     c66:	80 e0       	ldi	r24, 0x00	; 0
     c68:	01 c0       	rjmp	.+2      	; 0xc6c <cmd_param_word+0x68>
    } else {
      return CMD_PARSE_ERROR;
    }
  }
  return CMD_OK;
     c6a:	81 e1       	ldi	r24, 0x11	; 17
}
     c6c:	0f 90       	pop	r0
     c6e:	0f 90       	pop	r0
     c70:	cf 91       	pop	r28
     c72:	df 91       	pop	r29
     c74:	1f 91       	pop	r17
     c76:	0f 91       	pop	r16
     c78:	08 95       	ret

00000c7a <cmd_param_toggle>:
  param_reset();
  return CMD_OK;
}

COMMAND(cmd_param_toggle)
{
     c7a:	ef 92       	push	r14
     c7c:	ff 92       	push	r15
     c7e:	1f 93       	push	r17
     c80:	df 93       	push	r29
     c82:	cf 93       	push	r28
     c84:	0f 92       	push	r0
     c86:	cd b7       	in	r28, 0x3d	; 61
     c88:	de b7       	in	r29, 0x3e	; 62
     c8a:	db 01       	movw	r26, r22
  uint8_t group = argv[0][0];
     c8c:	ed 91       	ld	r30, X+
     c8e:	fc 91       	ld	r31, X
     c90:	11 97       	sbiw	r26, 0x01	; 1
     c92:	90 81       	ld	r25, Z
  uint8_t type = argv[0][1];
     c94:	21 81       	ldd	r18, Z+1	; 0x01
  uint8_t *val = 0;
  uint8_t result = CMD_OK;

  if(group == 't') {
     c96:	94 37       	cpi	r25, 0x74	; 116
     c98:	41 f4       	brne	.+16     	; 0xcaa <cmd_param_toggle+0x30>
    switch(type) {
     c9a:	2d 36       	cpi	r18, 0x6D	; 109
     c9c:	71 f5       	brne	.+92     	; 0xcfa <cmd_param_toggle+0x80>
     c9e:	e5 e7       	ldi	r30, 0x75	; 117
     ca0:	f1 e0       	ldi	r31, 0x01	; 1
     ca2:	90 81       	ld	r25, Z
     ca4:	7f 01       	movw	r14, r30
     ca6:	10 e0       	ldi	r17, 0x00	; 0
     ca8:	11 c0       	rjmp	.+34     	; 0xccc <cmd_param_toggle+0x52>
      case 'm': val = &param.test_mode; break;
      default: return CMD_PARSE_ERROR;
    }
  }
  else if(group == 'f') {
     caa:	96 36       	cpi	r25, 0x66	; 102
     cac:	31 f5       	brne	.+76     	; 0xcfa <cmd_param_toggle+0x80>
    switch(type) {
     cae:	23 36       	cpi	r18, 0x63	; 99
     cb0:	41 f0       	breq	.+16     	; 0xcc2 <cmd_param_toggle+0x48>
     cb2:	24 36       	cpi	r18, 0x64	; 100
     cb4:	11 f5       	brne	.+68     	; 0xcfa <cmd_param_toggle+0x80>
     cb6:	ea e6       	ldi	r30, 0x6A	; 106
     cb8:	f1 e0       	ldi	r31, 0x01	; 1
     cba:	90 81       	ld	r25, Z
     cbc:	7f 01       	movw	r14, r30
     cbe:	13 e0       	ldi	r17, 0x03	; 3
     cc0:	05 c0       	rjmp	.+10     	; 0xccc <cmd_param_toggle+0x52>
     cc2:	e9 e6       	ldi	r30, 0x69	; 105
     cc4:	f1 e0       	ldi	r31, 0x01	; 1
     cc6:	90 81       	ld	r25, Z
     cc8:	7f 01       	movw	r14, r30
     cca:	13 e0       	ldi	r17, 0x03	; 3
  }
  else {
    return CMD_PARSE_ERROR;
  }

  if(argc == 1) {
     ccc:	81 30       	cpi	r24, 0x01	; 1
     cce:	31 f4       	brne	.+12     	; 0xcdc <cmd_param_toggle+0x62>
    // toggle value if no argument is given
    *val = *val ? 0 : 1;
     cd0:	f7 01       	movw	r30, r14
     cd2:	10 82       	st	Z, r1
     cd4:	99 23       	and	r25, r25
     cd6:	91 f4       	brne	.+36     	; 0xcfc <cmd_param_toggle+0x82>
     cd8:	80 83       	st	Z, r24
     cda:	10 c0       	rjmp	.+32     	; 0xcfc <cmd_param_toggle+0x82>
  } else {
    uint8_t new_val;
    if(parse_byte(argv[1],&new_val)) {
     cdc:	12 96       	adiw	r26, 0x02	; 2
     cde:	8d 91       	ld	r24, X+
     ce0:	9c 91       	ld	r25, X
     ce2:	13 97       	sbiw	r26, 0x03	; 3
     ce4:	be 01       	movw	r22, r28
     ce6:	6f 5f       	subi	r22, 0xFF	; 255
     ce8:	7f 4f       	sbci	r23, 0xFF	; 255
     cea:	0e 94 7e 03 	call	0x6fc	; 0x6fc <parse_byte>
     cee:	88 23       	and	r24, r24
     cf0:	21 f0       	breq	.+8      	; 0xcfa <cmd_param_toggle+0x80>
      *val = new_val;
     cf2:	89 81       	ldd	r24, Y+1	; 0x01
     cf4:	f7 01       	movw	r30, r14
     cf6:	80 83       	st	Z, r24
     cf8:	01 c0       	rjmp	.+2      	; 0xcfc <cmd_param_toggle+0x82>
     cfa:	11 e1       	ldi	r17, 0x11	; 17
    } else {
      return CMD_PARSE_ERROR;
    }
  }
  return result;
}
     cfc:	81 2f       	mov	r24, r17
     cfe:	0f 90       	pop	r0
     d00:	cf 91       	pop	r28
     d02:	df 91       	pop	r29
     d04:	1f 91       	pop	r17
     d06:	ff 90       	pop	r15
     d08:	ef 90       	pop	r14
     d0a:	08 95       	ret

00000d0c <cmd_param_mac_addr>:
  }
  return CMD_OK;
}

COMMAND(cmd_param_mac_addr)
{
     d0c:	df 93       	push	r29
     d0e:	cf 93       	push	r28
     d10:	00 d0       	rcall	.+0      	; 0xd12 <cmd_param_mac_addr+0x6>
     d12:	00 d0       	rcall	.+0      	; 0xd14 <cmd_param_mac_addr+0x8>
     d14:	00 d0       	rcall	.+0      	; 0xd16 <cmd_param_mac_addr+0xa>
     d16:	cd b7       	in	r28, 0x3d	; 61
     d18:	de b7       	in	r29, 0x3e	; 62
     d1a:	fb 01       	movw	r30, r22
  uint8_t mac[6];

  if(net_parse_mac(argv[1], mac)) {
     d1c:	82 81       	ldd	r24, Z+2	; 0x02
     d1e:	93 81       	ldd	r25, Z+3	; 0x03
     d20:	be 01       	movw	r22, r28
     d22:	6f 5f       	subi	r22, 0xFF	; 255
     d24:	7f 4f       	sbci	r23, 0xFF	; 255
     d26:	0e 94 96 08 	call	0x112c	; 0x112c <net_parse_mac>
     d2a:	88 23       	and	r24, r24
     d2c:	11 f4       	brne	.+4      	; 0xd32 <cmd_param_mac_addr+0x26>
     d2e:	81 e1       	ldi	r24, 0x11	; 17
     d30:	07 c0       	rjmp	.+14     	; 0xd40 <cmd_param_mac_addr+0x34>
    net_copy_mac(mac, param.mac_addr);
     d32:	ce 01       	movw	r24, r28
     d34:	01 96       	adiw	r24, 0x01	; 1
     d36:	63 e6       	ldi	r22, 0x63	; 99
     d38:	71 e0       	ldi	r23, 0x01	; 1
     d3a:	0e 94 db 07 	call	0xfb6	; 0xfb6 <net_copy_mac>
     d3e:	80 e0       	ldi	r24, 0x00	; 0
    return CMD_OK;
  } else {
    return CMD_PARSE_ERROR;
  }
}
     d40:	26 96       	adiw	r28, 0x06	; 6
     d42:	0f b6       	in	r0, 0x3f	; 63
     d44:	f8 94       	cli
     d46:	de bf       	out	0x3e, r29	; 62
     d48:	0f be       	out	0x3f, r0	; 63
     d4a:	cd bf       	out	0x3d, r28	; 61
     d4c:	cf 91       	pop	r28
     d4e:	df 91       	pop	r29
     d50:	08 95       	ret

00000d52 <cmd_stats_reset>:
  return CMD_OK;
}

COMMAND(cmd_stats_reset)
{
  stats_reset();
     d52:	0e 94 1f 13 	call	0x263e	; 0x263e <stats_reset>
  return CMD_OK;
}
     d56:	80 e0       	ldi	r24, 0x00	; 0
     d58:	08 95       	ret

00000d5a <cmd_stats_dump>:
  }
}

COMMAND(cmd_stats_dump)
{
  stats_dump_all();
     d5a:	0e 94 5d 13 	call	0x26ba	; 0x26ba <stats_dump_all>
  return CMD_OK;
}
     d5e:	80 e0       	ldi	r24, 0x00	; 0
     d60:	08 95       	ret

00000d62 <cmd_param_reset>:
  }
}

COMMAND(cmd_param_reset)
{
  param_reset();
     d62:	0e 94 72 09 	call	0x12e4	; 0x12e4 <param_reset>
  return CMD_OK;
}
     d66:	80 e0       	ldi	r24, 0x00	; 0
     d68:	08 95       	ret

00000d6a <cmd_param_load>:
  }
}

COMMAND(cmd_param_load)
{
  uint8_t result = param_load();
     d6a:	0e 94 81 09 	call	0x1302	; 0x1302 <param_load>
  if(result == PARAM_OK) {
     d6e:	81 11       	cpse	r24, r1
    return CMD_OK;
  } else {
    return CMD_MASK_ERROR | result;
     d70:	80 62       	ori	r24, 0x20	; 32
  }
}
     d72:	08 95       	ret

00000d74 <cmd_param_save>:
  return CMD_OK;
}

COMMAND(cmd_param_save)
{
  uint8_t result = param_save();
     d74:	0e 94 b2 09 	call	0x1364	; 0x1364 <param_save>
  if(result == PARAM_OK) {
     d78:	81 11       	cpse	r24, r1
    return CMD_OK;
  } else {
    return CMD_MASK_ERROR | result;
     d7a:	80 62       	ori	r24, 0x20	; 32
  }
}
     d7c:	08 95       	ret

00000d7e <cmd_param_dump>:
  return CMD_OK;
}

COMMAND(cmd_param_dump)
{
  param_dump();
     d7e:	0e 94 4c 09 	call	0x1298	; 0x1298 <param_dump>
  return CMD_OK;
}
     d82:	80 e0       	ldi	r24, 0x00	; 0
     d84:	08 95       	ret

00000d86 <cmd_enter_pb_test_mode>:
  stats_reset();
}

COMMAND_KEY(cmd_enter_pb_test_mode)
{
  run_mode = RUN_MODE_PB_TEST;
     d86:	82 e0       	ldi	r24, 0x02	; 2
     d88:	80 93 42 01 	sts	0x0142, r24
}
     d8c:	08 95       	ret

00000d8e <cmd_enter_pio_test_mode>:

COMMAND_KEY(cmd_enter_pio_test_mode)
{
  run_mode = RUN_MODE_PIO_TEST;
     d8e:	83 e0       	ldi	r24, 0x03	; 3
     d90:	80 93 42 01 	sts	0x0142, r24
}
     d94:	08 95       	ret

00000d96 <cmd_enter_bridge_mode>:

COMMAND_KEY(cmd_enter_bridge_mode)
{
  run_mode = RUN_MODE_BRIDGE;
     d96:	10 92 42 01 	sts	0x0142, r1
}
     d9a:	08 95       	ret

00000d9c <cmd_enter_bridge_test_mode>:

COMMAND_KEY(cmd_enter_bridge_test_mode)
{
  run_mode = RUN_MODE_BRIDGE_TEST;
     d9c:	81 e0       	ldi	r24, 0x01	; 1
     d9e:	80 93 42 01 	sts	0x0142, r24
}
     da2:	08 95       	ret

00000da4 <cmd_toggle_verbose>:
  pb_test_toggle_auto();
}

COMMAND_KEY(cmd_toggle_verbose)
{
  global_verbose = !global_verbose;
     da4:	90 e0       	ldi	r25, 0x00	; 0
     da6:	80 91 43 01 	lds	r24, 0x0143
     daa:	88 23       	and	r24, r24
     dac:	09 f4       	brne	.+2      	; 0xdb0 <cmd_toggle_verbose+0xc>
     dae:	91 e0       	ldi	r25, 0x01	; 1
     db0:	90 93 43 01 	sts	0x0143, r25
  // NOTE: UART - VERBOSE: global_verbose ? "ON\r\n" : "OFF\r\n"
}
     db4:	08 95       	ret

00000db6 <cmd_toggle_auto_mode>:
  pb_test_send_packet(1);
}

COMMAND_KEY(cmd_toggle_auto_mode)
{
  pb_test_toggle_auto();
     db6:	0e 94 52 0d 	call	0x1aa4	; 0x1aa4 <pb_test_toggle_auto>
}
     dba:	08 95       	ret

00000dbc <cmd_send_test_packet_silent>:
  pb_test_send_packet(0);
}

COMMAND_KEY(cmd_send_test_packet_silent)
{
  pb_test_send_packet(1);
     dbc:	81 e0       	ldi	r24, 0x01	; 1
     dbe:	0e 94 4d 0d 	call	0x1a9a	; 0x1a9a <pb_test_send_packet>
}
     dc2:	08 95       	ret

00000dc4 <cmd_send_test_packet>:
  run_mode = RUN_MODE_BRIDGE_TEST;
}

COMMAND_KEY(cmd_send_test_packet)
{
  pb_test_send_packet(0);
     dc4:	80 e0       	ldi	r24, 0x00	; 0
     dc6:	0e 94 4d 0d 	call	0x1a9a	; 0x1a9a <pb_test_send_packet>
}
     dca:	08 95       	ret

00000dcc <cmd_reset_stats>:
  stats_dump_all();
}

COMMAND_KEY(cmd_reset_stats)
{
  stats_reset();
     dcc:	0e 94 1f 13 	call	0x263e	; 0x263e <stats_reset>
}
     dd0:	08 95       	ret

00000dd2 <cmd_dump_stats>:
#include "main.h"
#include "base/uartutil.h"

COMMAND_KEY(cmd_dump_stats)
{
  stats_dump_all();
     dd2:	0e 94 5d 13 	call	0x26ba	; 0x26ba <stats_dump_all>
}
     dd6:	08 95       	ret

00000dd8 <dump_eth_pkt>:
void dump_eth_pkt(const uint8_t *eth_buf, uint16_t size)
{
  uint8_t buf[4];

  // NOTE: UART - [dword_to_dec(size), hex_word(eth_get_pkt_type(eth_buf)), eth_get_src_mac(eth_buf) > eth_get_tgt_mac(eth_buf)]
}
     dd8:	08 95       	ret

00000dda <dump_ip_pkt>:
		// NOTE: UART - , hex_word(proto)
  }

  // src/tgt ip
  // NOTE: UART - , net_dump_ip(ip_get_src_ip(ip_buf)) > net_dump_ip(ip_get_tgt_ip(ip_buf)) ]
}
     dda:	08 95       	ret

00000ddc <dump_pb_cmd>:
  if(!ps->is_send) {
		// NOTE: UART - +req= uart_send_delta(ps->recv_delta);
  }

  // NOTE: UART - \r\n
}
     ddc:	08 95       	ret

00000dde <dump_arp_pkt>:

extern uint8_t arp_is_ipv4(const uint8_t *buf, uint16_t len);
extern void arp_make_reply(uint8_t *buf, const uint8_t *my_mac, const uint8_t *my_ip);

/* getter */
inline uint16_t arp_get_op(const uint8_t *buf) { return net_get_word(buf + ARP_OFF_OP); }
     dde:	06 96       	adiw	r24, 0x06	; 6
     de0:	0e 94 fb 07 	call	0xff6	; 0xff6 <net_get_word>
		// NOTE: UART - hex_word(op)
  }

  // src-tgt pair
  // NOTE: UART - ,(net_dump_mac(arp_get_src_mac(arp_buf)), net_dump_ip(arp_get_src_ip(arp_buf))) > (net_dump_mac(arp_get_tgt_mac(arp_buf)) , net_dump_ip(arp_get_tgt_ip(arp_buf)))]
}
     de4:	08 95       	ret

00000de6 <dump_ip_protocol>:
		// NOTE: UART - hex_word(port)
  }
}

extern void dump_ip_protocol(const uint8_t *ip_buf)
{
     de6:	1f 93       	push	r17
     de8:	cf 93       	push	r28
     dea:	df 93       	push	r29
     dec:	fc 01       	movw	r30, r24
  const uint8_t *proto_buf = ip_buf + ip_get_hdr_length(ip_buf);
     dee:	80 81       	ld	r24, Z
     df0:	88 0f       	add	r24, r24
     df2:	88 0f       	add	r24, r24
     df4:	8c 73       	andi	r24, 0x3C	; 60
     df6:	ef 01       	movw	r28, r30
     df8:	c8 0f       	add	r28, r24
     dfa:	d1 1d       	adc	r29, r1

inline const uint8_t *ip_get_src_ip(const uint8_t *buf) { return buf + 12; }
inline const uint8_t *ip_get_tgt_ip(const uint8_t *buf) { return buf + 16; }
inline uint16_t ip_get_total_length(const uint8_t *buf) { return (uint16_t)buf[2] << 8 | (uint16_t)buf[3]; }
inline uint8_t ip_get_hdr_length(const uint8_t *buf) { return (buf[0] & 0xf) * 4; }
inline uint8_t ip_get_protocol(const uint8_t *buf) { return buf[9]; }
     dfc:	81 85       	ldd	r24, Z+9	; 0x09
  uint8_t proto = ip_get_protocol(ip_buf);
  if(proto == IP_PROTOCOL_UDP) {
     dfe:	81 31       	cpi	r24, 0x11	; 17
     e00:	41 f4       	brne	.+16     	; 0xe12 <dump_ip_protocol+0x2c>
#define UDP_LENGTH_OFF    4
#define UDP_CHECKSUM_OFF  6
#define UDP_DATA_OFF      8

inline const uint8_t *udp_get_data_ptr(const uint8_t *udp_buf) { return udp_buf + UDP_DATA_OFF; }
inline uint16_t  udp_get_src_port(const uint8_t *udp_buf) { return net_get_word(udp_buf + UDP_SRC_PORT_OFF); }
     e02:	ce 01       	movw	r24, r28
     e04:	0e 94 fb 07 	call	0xff6	; 0xff6 <net_get_word>
inline uint16_t  udp_get_tgt_port(const uint8_t *udp_buf) { return net_get_word(udp_buf + UDP_TGT_PORT_OFF); }
     e08:	ce 01       	movw	r24, r28
     e0a:	02 96       	adiw	r24, 0x02	; 2
     e0c:	0e 94 fb 07 	call	0xff6	; 0xff6 <net_get_word>
     e10:	18 c0       	rjmp	.+48     	; 0xe42 <dump_ip_protocol+0x5c>
		// NOTE: UART - [UDP:
    uint16_t src_port = udp_get_src_port(proto_buf);
    uint16_t tgt_port = udp_get_tgt_port(proto_buf);
    // NOTE: UART - src_port > tgt_port]
  }
  else if(proto == IP_PROTOCOL_TCP) {
     e12:	86 30       	cpi	r24, 0x06	; 6
     e14:	b1 f4       	brne	.+44     	; 0xe42 <dump_ip_protocol+0x5c>
#define TCP_FLAGS_ECE     0x040
#define TCP_FLAGS_CWR     0x080
#define TCP_FLAGS_NS      0x100

inline const uint8_t *tcp_get_data_ptr(const uint8_t *tcp_buf) { return tcp_buf + (tcp_buf[TCP_DATA_SIZE_OFF] >> 4) * 4; }
inline uint16_t  tcp_get_src_port(const uint8_t *tcp_buf) { return net_get_word(tcp_buf + TCP_SRC_PORT_OFF); }
     e16:	ce 01       	movw	r24, r28
     e18:	0e 94 fb 07 	call	0xff6	; 0xff6 <net_get_word>
inline uint16_t  tcp_get_tgt_port(const uint8_t *tcp_buf) { return net_get_word(tcp_buf + TCP_TGT_PORT_OFF); }
     e1c:	ce 01       	movw	r24, r28
     e1e:	02 96       	adiw	r24, 0x02	; 2
     e20:	0e 94 fb 07 	call	0xff6	; 0xff6 <net_get_word>
inline uint32_t  tcp_get_seq_num(const uint8_t *tcp_buf) { return net_get_long(tcp_buf + TCP_SEQ_NUM_OFF); }
inline uint32_t  tcp_get_ack_num(const uint8_t *tcp_buf) { return net_get_long(tcp_buf + TCP_ACK_NUM_OFF); }
inline uint16_t  tcp_get_flags(const uint8_t *tcp_buf) { return net_get_word(tcp_buf + TCP_FLAGS_OFF) & 0x1ff; }
     e24:	ce 01       	movw	r24, r28
     e26:	0c 96       	adiw	r24, 0x0c	; 12
     e28:	0e 94 fb 07 	call	0xff6	; 0xff6 <net_get_word>
     e2c:	18 2f       	mov	r17, r24
#define TCP_FLAGS_NS      0x100

inline const uint8_t *tcp_get_data_ptr(const uint8_t *tcp_buf) { return tcp_buf + (tcp_buf[TCP_DATA_SIZE_OFF] >> 4) * 4; }
inline uint16_t  tcp_get_src_port(const uint8_t *tcp_buf) { return net_get_word(tcp_buf + TCP_SRC_PORT_OFF); }
inline uint16_t  tcp_get_tgt_port(const uint8_t *tcp_buf) { return net_get_word(tcp_buf + TCP_TGT_PORT_OFF); }
inline uint32_t  tcp_get_seq_num(const uint8_t *tcp_buf) { return net_get_long(tcp_buf + TCP_SEQ_NUM_OFF); }
     e2e:	ce 01       	movw	r24, r28
     e30:	04 96       	adiw	r24, 0x04	; 4
     e32:	0e 94 09 08 	call	0x1012	; 0x1012 <net_get_long>
		// NOTE: UART - ,flags= hex_word(flags)

    uint32_t seq = tcp_get_seq_num(proto_buf);
    // NOTE: UART - ,seq= hex_word(seq)

    if(flags & TCP_FLAGS_ACK) {
     e36:	14 ff       	sbrs	r17, 4
     e38:	04 c0       	rjmp	.+8      	; 0xe42 <dump_ip_protocol+0x5c>
inline uint32_t  tcp_get_ack_num(const uint8_t *tcp_buf) { return net_get_long(tcp_buf + TCP_ACK_NUM_OFF); }
     e3a:	ce 01       	movw	r24, r28
     e3c:	08 96       	adiw	r24, 0x08	; 8
     e3e:	0e 94 09 08 	call	0x1012	; 0x1012 <net_get_long>
      // NOTE: UART - ,ack= hex_word(ack)
    }

    // NOTE: UART - ]
  }
}
     e42:	df 91       	pop	r29
     e44:	cf 91       	pop	r28
     e46:	1f 91       	pop	r17
     e48:	08 95       	ret

00000e4a <dump_line>:

extern void dump_line(const uint8_t *eth_buf, uint16_t size)
{
     e4a:	cf 93       	push	r28
     e4c:	df 93       	push	r29
  dump_eth_pkt(eth_buf, size);

  const uint8_t *ip_buf = eth_buf + ETH_HDR_SIZE;
     e4e:	ec 01       	movw	r28, r24
     e50:	2e 96       	adiw	r28, 0x0e	; 14
 * Returns EtherType field value in given eth frame.
 * @param pkt Pointer to eth frame.
 * @return 2-byte EtherType field value.
 */
inline uint16_t eth_get_pkt_type(const uint8_t *pkt) {
	return net_get_word(pkt + ETH_OFF_TYPE);
     e52:	0c 96       	adiw	r24, 0x0c	; 12
     e54:	0e 94 fb 07 	call	0xff6	; 0xff6 <net_get_word>
  uint16_t type = eth_get_pkt_type(eth_buf);
  if(type == ETH_TYPE_ARP) {
     e58:	28 e0       	ldi	r18, 0x08	; 8
     e5a:	86 30       	cpi	r24, 0x06	; 6
     e5c:	92 07       	cpc	r25, r18
     e5e:	21 f4       	brne	.+8      	; 0xe68 <dump_line+0x1e>
    dump_arp_pkt(ip_buf);
     e60:	ce 01       	movw	r24, r28
     e62:	0e 94 ef 06 	call	0xdde	; 0xdde <dump_arp_pkt>
     e66:	06 c0       	rjmp	.+12     	; 0xe74 <dump_line+0x2a>
  } else if(type == ETH_TYPE_IPV4) {
     e68:	80 50       	subi	r24, 0x00	; 0
     e6a:	98 40       	sbci	r25, 0x08	; 8
     e6c:	19 f4       	brne	.+6      	; 0xe74 <dump_line+0x2a>
    dump_ip_pkt(ip_buf);
    dump_ip_protocol(ip_buf);
     e6e:	ce 01       	movw	r24, r28
     e70:	0e 94 f3 06 	call	0xde6	; 0xde6 <dump_ip_protocol>
  }
}
     e74:	df 91       	pop	r29
     e76:	cf 91       	pop	r28
     e78:	08 95       	ret

00000e7a <main>:
 */

static void init_hw(void)
{
	/// Disable watchdog
	wdt_disable();
     e7a:	88 e1       	ldi	r24, 0x18	; 24
     e7c:	0f b6       	in	r0, 0x3f	; 63
     e7e:	f8 94       	cli
     e80:	80 93 60 00 	sts	0x0060, r24
     e84:	10 92 60 00 	sts	0x0060, r1
     e88:	0f be       	out	0x3f, r0	; 63
	sei();
     e8a:	78 94       	sei
	/// Setup other HW stuff
	timer_init();   // Setup timer
     e8c:	0e 94 03 02 	call	0x406	; 0x406 <timer_init>
	par_low_init(); // Setup parallel interface
     e90:	0e 94 2e 09 	call	0x125c	; 0x125c <par_low_init>

	// Send welcome message
	// NOTE: UART - \r\nWelcome to plipbox " VERSION " " BUILD_DATE "\r\n

	// Load & display parameters (config)
	param_init();
     e94:	0e 94 ab 09 	call	0x1356	; 0x1356 <param_init>
	param_dump();
     e98:	0e 94 4c 09 	call	0x1298	; 0x1298 <param_dump>
	#endif

	// Enter main loop depending on current run mode
	uint8_t result = CMD_WORKER_IDLE;
	while(result != CMD_WORKER_RESET)
		switch(run_mode) {
     e9c:	80 91 42 01 	lds	r24, 0x0142
     ea0:	82 30       	cpi	r24, 0x02	; 2
     ea2:	29 f0       	breq	.+10     	; 0xeae <main+0x34>
     ea4:	83 30       	cpi	r24, 0x03	; 3
     ea6:	31 f0       	breq	.+12     	; 0xeb4 <main+0x3a>
     ea8:	81 30       	cpi	r24, 0x01	; 1
     eaa:	51 f4       	brne	.+20     	; 0xec0 <main+0x46>
     eac:	06 c0       	rjmp	.+12     	; 0xeba <main+0x40>
			case RUN_MODE_PB_TEST:
				result = pb_test_loop();
     eae:	0e 94 62 0d 	call	0x1ac4	; 0x1ac4 <pb_test_loop>
     eb2:	08 c0       	rjmp	.+16     	; 0xec4 <main+0x4a>
				break;
			case RUN_MODE_PIO_TEST:
				result = pio_test_loop();
     eb4:	0e 94 ca 0e 	call	0x1d94	; 0x1d94 <pio_test_loop>
     eb8:	05 c0       	rjmp	.+10     	; 0xec4 <main+0x4a>
				break;
			case RUN_MODE_BRIDGE_TEST:
				result = bridge_test_loop();
     eba:	0e 94 52 05 	call	0xaa4	; 0xaa4 <bridge_test_loop>
     ebe:	02 c0       	rjmp	.+4      	; 0xec4 <main+0x4a>
				break;
			case RUN_MODE_BRIDGE:
			default:
				result = bridge_loop();
     ec0:	0e 94 69 04 	call	0x8d2	; 0x8d2 <bridge_loop>
		uart_send_free_stack();
	#endif

	// Enter main loop depending on current run mode
	uint8_t result = CMD_WORKER_IDLE;
	while(result != CMD_WORKER_RESET)
     ec4:	82 30       	cpi	r24, 0x02	; 2
     ec6:	51 f7       	brne	.-44     	; 0xe9c <main+0x22>
				result = bridge_loop();
				break;
		}

	// Wait a bit and do a reset
	timer_delay_10ms(10);
     ec8:	8a e0       	ldi	r24, 0x0A	; 10
     eca:	90 e0       	ldi	r25, 0x00	; 0
     ecc:	0e 94 7a 02 	call	0x4f4	; 0x4f4 <timer_delay_10ms>
	wdt_enable(WDTO_15MS);
     ed0:	28 e0       	ldi	r18, 0x08	; 8
     ed2:	88 e1       	ldi	r24, 0x18	; 24
     ed4:	90 e0       	ldi	r25, 0x00	; 0
     ed6:	0f b6       	in	r0, 0x3f	; 63
     ed8:	f8 94       	cli
     eda:	a8 95       	wdr
     edc:	80 93 60 00 	sts	0x0060, r24
     ee0:	0f be       	out	0x3f, r0	; 63
     ee2:	20 93 60 00 	sts	0x0060, r18
     ee6:	ff cf       	rjmp	.-2      	; 0xee6 <main+0x6c>

00000ee8 <arp_make_reply>:

  return (hw_type == 1) && (pt_type == 0x800) && (hw_size == 6) && (pt_size == 4);
}

void arp_make_reply(uint8_t *buf, const uint8_t *my_mac, const uint8_t *my_ip)
{
     ee8:	8f 92       	push	r8
     eea:	9f 92       	push	r9
     eec:	af 92       	push	r10
     eee:	bf 92       	push	r11
     ef0:	cf 92       	push	r12
     ef2:	df 92       	push	r13
     ef4:	ef 92       	push	r14
     ef6:	ff 92       	push	r15
     ef8:	0f 93       	push	r16
     efa:	1f 93       	push	r17
     efc:	8c 01       	movw	r16, r24
     efe:	5b 01       	movw	r10, r22
     f00:	4a 01       	movw	r8, r20
	// make a reply
	net_put_word(buf + ARP_OFF_OP, ARP_REPLY);
     f02:	06 96       	adiw	r24, 0x06	; 6
     f04:	62 e0       	ldi	r22, 0x02	; 2
     f06:	70 e0       	ldi	r23, 0x00	; 0
     f08:	0e 94 05 08 	call	0x100a	; 0x100a <net_put_word>
	net_copy_mac(buf + ARP_OFF_SRC_MAC, buf + ARP_OFF_TGT_MAC);
     f0c:	cc 24       	eor	r12, r12
     f0e:	dd 24       	eor	r13, r13
     f10:	68 94       	set
     f12:	c3 f8       	bld	r12, 3
     f14:	c0 0e       	add	r12, r16
     f16:	d1 1e       	adc	r13, r17
     f18:	b8 01       	movw	r22, r16
     f1a:	6e 5e       	subi	r22, 0xEE	; 238
     f1c:	7f 4f       	sbci	r23, 0xFF	; 255
     f1e:	c6 01       	movw	r24, r12
     f20:	0e 94 db 07 	call	0xfb6	; 0xfb6 <net_copy_mac>
	net_copy_ip(buf + ARP_OFF_SRC_IP, buf + ARP_OFF_TGT_IP);
     f24:	0f 2e       	mov	r0, r31
     f26:	fe e0       	ldi	r31, 0x0E	; 14
     f28:	ef 2e       	mov	r14, r31
     f2a:	ff 24       	eor	r15, r15
     f2c:	f0 2d       	mov	r31, r0
     f2e:	e0 0e       	add	r14, r16
     f30:	f1 1e       	adc	r15, r17
     f32:	08 5e       	subi	r16, 0xE8	; 232
     f34:	1f 4f       	sbci	r17, 0xFF	; 255
     f36:	c7 01       	movw	r24, r14
     f38:	b8 01       	movw	r22, r16
     f3a:	0e 94 ea 07 	call	0xfd4	; 0xfd4 <net_copy_ip>
	net_copy_mac(my_mac, buf + ARP_OFF_SRC_MAC);
     f3e:	c5 01       	movw	r24, r10
     f40:	b6 01       	movw	r22, r12
     f42:	0e 94 db 07 	call	0xfb6	; 0xfb6 <net_copy_mac>
	net_copy_ip(my_ip, buf + ARP_OFF_SRC_IP);
     f46:	c4 01       	movw	r24, r8
     f48:	b7 01       	movw	r22, r14
     f4a:	0e 94 ea 07 	call	0xfd4	; 0xfd4 <net_copy_ip>
}
     f4e:	1f 91       	pop	r17
     f50:	0f 91       	pop	r16
     f52:	ff 90       	pop	r15
     f54:	ef 90       	pop	r14
     f56:	df 90       	pop	r13
     f58:	cf 90       	pop	r12
     f5a:	bf 90       	pop	r11
     f5c:	af 90       	pop	r10
     f5e:	9f 90       	pop	r9
     f60:	8f 90       	pop	r8
     f62:	08 95       	ret

00000f64 <arp_is_ipv4>:

#include "arp.h"
#include "net.h"

uint8_t arp_is_ipv4(const uint8_t *buf, uint16_t len)
{
     f64:	0f 93       	push	r16
     f66:	1f 93       	push	r17
     f68:	cf 93       	push	r28
     f6a:	df 93       	push	r29
     f6c:	ec 01       	movw	r28, r24
  if(len < ARP_SIZE) {
     f6e:	6c 31       	cpi	r22, 0x1C	; 28
     f70:	71 05       	cpc	r23, r1
     f72:	10 f4       	brcc	.+4      	; 0xf78 <arp_is_ipv4+0x14>
     f74:	80 e0       	ldi	r24, 0x00	; 0
     f76:	1a c0       	rjmp	.+52     	; 0xfac <arp_is_ipv4+0x48>
    return 0;
  }

  uint16_t hw_type = net_get_word(buf + ARP_OFF_HW_TYPE);
     f78:	0e 94 fb 07 	call	0xff6	; 0xff6 <net_get_word>
     f7c:	8c 01       	movw	r16, r24
  uint16_t pt_type = net_get_word(buf + ARP_OFF_PROT_TYPE);
     f7e:	ce 01       	movw	r24, r28
     f80:	02 96       	adiw	r24, 0x02	; 2
     f82:	0e 94 fb 07 	call	0xff6	; 0xff6 <net_get_word>
  uint8_t hw_size = buf[ARP_OFF_HW_SIZE];
     f86:	2c 81       	ldd	r18, Y+4	; 0x04
  uint8_t pt_size = buf[ARP_OFF_PROT_SIZE];
     f88:	3d 81       	ldd	r19, Y+5	; 0x05

  return (hw_type == 1) && (pt_type == 0x800) && (hw_size == 6) && (pt_size == 4);
     f8a:	01 30       	cpi	r16, 0x01	; 1
     f8c:	11 05       	cpc	r17, r1
     f8e:	61 f4       	brne	.+24     	; 0xfa8 <arp_is_ipv4+0x44>
     f90:	80 50       	subi	r24, 0x00	; 0
     f92:	98 40       	sbci	r25, 0x08	; 8
     f94:	49 f4       	brne	.+18     	; 0xfa8 <arp_is_ipv4+0x44>
     f96:	26 30       	cpi	r18, 0x06	; 6
     f98:	39 f4       	brne	.+14     	; 0xfa8 <arp_is_ipv4+0x44>
     f9a:	90 e0       	ldi	r25, 0x00	; 0
     f9c:	34 30       	cpi	r19, 0x04	; 4
     f9e:	09 f0       	breq	.+2      	; 0xfa2 <arp_is_ipv4+0x3e>
     fa0:	91 e0       	ldi	r25, 0x01	; 1
     fa2:	81 e0       	ldi	r24, 0x01	; 1
     fa4:	89 27       	eor	r24, r25
     fa6:	02 c0       	rjmp	.+4      	; 0xfac <arp_is_ipv4+0x48>
     fa8:	80 e0       	ldi	r24, 0x00	; 0
     faa:	90 e0       	ldi	r25, 0x00	; 0
}
     fac:	df 91       	pop	r29
     fae:	cf 91       	pop	r28
     fb0:	1f 91       	pop	r17
     fb2:	0f 91       	pop	r16
     fb4:	08 95       	ret

00000fb6 <net_copy_mac>:
const uint8_t net_bcast_mac[6] = { 0xff, 0xff, 0xff, 0xff, 0xff, 0xff };
const uint8_t net_zero_mac[6] = { 0,0,0,0,0,0 };
const uint8_t net_zero_ip[4] = { 0,0,0,0 };
const uint8_t net_ones_ip[4] = { 255,255,255,255 };

void net_copy_mac(const uint8_t *in, uint8_t *out) {
     fb6:	ac 01       	movw	r20, r24
     fb8:	25 e0       	ldi	r18, 0x05	; 5
	uint8_t i;
  for(i=6; i--;)
    out[i] = in[i];
     fba:	82 2f       	mov	r24, r18
     fbc:	90 e0       	ldi	r25, 0x00	; 0
     fbe:	db 01       	movw	r26, r22
     fc0:	a8 0f       	add	r26, r24
     fc2:	b9 1f       	adc	r27, r25
     fc4:	fa 01       	movw	r30, r20
     fc6:	e8 0f       	add	r30, r24
     fc8:	f9 1f       	adc	r31, r25
     fca:	80 81       	ld	r24, Z
     fcc:	8c 93       	st	X, r24
const uint8_t net_zero_ip[4] = { 0,0,0,0 };
const uint8_t net_ones_ip[4] = { 255,255,255,255 };

void net_copy_mac(const uint8_t *in, uint8_t *out) {
	uint8_t i;
  for(i=6; i--;)
     fce:	21 50       	subi	r18, 0x01	; 1
     fd0:	a0 f7       	brcc	.-24     	; 0xfba <net_copy_mac+0x4>
    out[i] = in[i];
}
     fd2:	08 95       	ret

00000fd4 <net_copy_ip>:

void net_copy_ip(const uint8_t *in, uint8_t *out) {
     fd4:	fc 01       	movw	r30, r24
     fd6:	db 01       	movw	r26, r22
	uint8_t i;
  for(i = 4; i--;)
		out[i] = in[i];
     fd8:	83 81       	ldd	r24, Z+3	; 0x03
     fda:	13 96       	adiw	r26, 0x03	; 3
     fdc:	8c 93       	st	X, r24
     fde:	13 97       	sbiw	r26, 0x03	; 3
     fe0:	82 81       	ldd	r24, Z+2	; 0x02
     fe2:	12 96       	adiw	r26, 0x02	; 2
     fe4:	8c 93       	st	X, r24
     fe6:	12 97       	sbiw	r26, 0x02	; 2
     fe8:	81 81       	ldd	r24, Z+1	; 0x01
     fea:	11 96       	adiw	r26, 0x01	; 1
     fec:	8c 93       	st	X, r24
     fee:	11 97       	sbiw	r26, 0x01	; 1
     ff0:	80 81       	ld	r24, Z
     ff2:	8c 93       	st	X, r24
}
     ff4:	08 95       	ret

00000ff6 <net_get_word>:

uint16_t  net_get_word(const uint8_t *buf) {
     ff6:	fc 01       	movw	r30, r24
     ff8:	21 81       	ldd	r18, Z+1	; 0x01
     ffa:	30 e0       	ldi	r19, 0x00	; 0
     ffc:	90 81       	ld	r25, Z
     ffe:	80 e0       	ldi	r24, 0x00	; 0
    1000:	28 2b       	or	r18, r24
    1002:	39 2b       	or	r19, r25
  return (uint16_t)buf[0] << 8 | (uint16_t)buf[1];
}
    1004:	82 2f       	mov	r24, r18
    1006:	93 2f       	mov	r25, r19
    1008:	08 95       	ret

0000100a <net_put_word>:

void net_put_word(uint8_t *buf, uint16_t value)
{
    100a:	fc 01       	movw	r30, r24
  buf[0] = (uint8_t)(value >> 8);
    100c:	70 83       	st	Z, r23
  buf[1] = (uint8_t)(value & 0xff);
    100e:	61 83       	std	Z+1, r22	; 0x01
}
    1010:	08 95       	ret

00001012 <net_get_long>:

uint32_t  net_get_long(const uint8_t *buf)
{
    1012:	fc 01       	movw	r30, r24
    1014:	23 81       	ldd	r18, Z+3	; 0x03
    1016:	30 e0       	ldi	r19, 0x00	; 0
    1018:	40 e0       	ldi	r20, 0x00	; 0
    101a:	50 e0       	ldi	r21, 0x00	; 0
    101c:	80 81       	ld	r24, Z
    101e:	90 e0       	ldi	r25, 0x00	; 0
    1020:	a0 e0       	ldi	r26, 0x00	; 0
    1022:	b0 e0       	ldi	r27, 0x00	; 0
    1024:	b8 2f       	mov	r27, r24
    1026:	aa 27       	eor	r26, r26
    1028:	99 27       	eor	r25, r25
    102a:	88 27       	eor	r24, r24
    102c:	28 2b       	or	r18, r24
    102e:	39 2b       	or	r19, r25
    1030:	4a 2b       	or	r20, r26
    1032:	5b 2b       	or	r21, r27
    1034:	81 81       	ldd	r24, Z+1	; 0x01
    1036:	90 e0       	ldi	r25, 0x00	; 0
    1038:	a0 e0       	ldi	r26, 0x00	; 0
    103a:	b0 e0       	ldi	r27, 0x00	; 0
    103c:	dc 01       	movw	r26, r24
    103e:	99 27       	eor	r25, r25
    1040:	88 27       	eor	r24, r24
    1042:	28 2b       	or	r18, r24
    1044:	39 2b       	or	r19, r25
    1046:	4a 2b       	or	r20, r26
    1048:	5b 2b       	or	r21, r27
    104a:	82 81       	ldd	r24, Z+2	; 0x02
    104c:	90 e0       	ldi	r25, 0x00	; 0
    104e:	a0 e0       	ldi	r26, 0x00	; 0
    1050:	b0 e0       	ldi	r27, 0x00	; 0
    1052:	ba 2f       	mov	r27, r26
    1054:	a9 2f       	mov	r26, r25
    1056:	98 2f       	mov	r25, r24
    1058:	88 27       	eor	r24, r24
    105a:	28 2b       	or	r18, r24
    105c:	39 2b       	or	r19, r25
    105e:	4a 2b       	or	r20, r26
    1060:	5b 2b       	or	r21, r27
  return (uint32_t)buf[0] << 24 | (uint32_t)buf[1] << 16 | (uint32_t)buf[2] << 8 | (uint32_t)buf[3];
}
    1062:	62 2f       	mov	r22, r18
    1064:	73 2f       	mov	r23, r19
    1066:	84 2f       	mov	r24, r20
    1068:	95 2f       	mov	r25, r21
    106a:	08 95       	ret

0000106c <net_put_long>:

void net_put_long(uint8_t *buf, uint32_t value)
{
    106c:	fc 01       	movw	r30, r24
  buf[0] = (uint8_t)(value >> 24);
    106e:	87 2f       	mov	r24, r23
    1070:	99 27       	eor	r25, r25
    1072:	aa 27       	eor	r26, r26
    1074:	bb 27       	eor	r27, r27
    1076:	80 83       	st	Z, r24
  buf[1] = (uint8_t)((value >> 16) & 0xff);
    1078:	cb 01       	movw	r24, r22
    107a:	aa 27       	eor	r26, r26
    107c:	bb 27       	eor	r27, r27
    107e:	81 83       	std	Z+1, r24	; 0x01
  buf[2] = (uint8_t)((value >> 8) & 0xff);
    1080:	bb 27       	eor	r27, r27
    1082:	a7 2f       	mov	r26, r23
    1084:	96 2f       	mov	r25, r22
    1086:	85 2f       	mov	r24, r21
    1088:	82 83       	std	Z+2, r24	; 0x02
  buf[3] = (uint8_t)(value & 0xff);
    108a:	43 83       	std	Z+3, r20	; 0x03
}
    108c:	08 95       	ret

0000108e <net_compare_mac>:
    pos += 4;
  }
  // NOTE: UART - ip_str
}

uint8_t  net_compare_mac(const uint8_t *a, const uint8_t *b) {
    108e:	ac 01       	movw	r20, r24
    1090:	20 e0       	ldi	r18, 0x00	; 0
    1092:	30 e0       	ldi	r19, 0x00	; 0
	uint8_t i;
  for(i=0;i<6;i++)
    if(a[i] != b[i])
    1094:	fa 01       	movw	r30, r20
    1096:	e2 0f       	add	r30, r18
    1098:	f3 1f       	adc	r31, r19
    109a:	db 01       	movw	r26, r22
    109c:	a2 0f       	add	r26, r18
    109e:	b3 1f       	adc	r27, r19
    10a0:	90 81       	ld	r25, Z
    10a2:	8c 91       	ld	r24, X
    10a4:	98 17       	cp	r25, r24
    10a6:	11 f0       	breq	.+4      	; 0x10ac <net_compare_mac+0x1e>
    10a8:	80 e0       	ldi	r24, 0x00	; 0
    10aa:	08 95       	ret
    10ac:	2f 5f       	subi	r18, 0xFF	; 255
    10ae:	3f 4f       	sbci	r19, 0xFF	; 255
  // NOTE: UART - ip_str
}

uint8_t  net_compare_mac(const uint8_t *a, const uint8_t *b) {
	uint8_t i;
  for(i=0;i<6;i++)
    10b0:	26 30       	cpi	r18, 0x06	; 6
    10b2:	31 05       	cpc	r19, r1
    10b4:	79 f7       	brne	.-34     	; 0x1094 <net_compare_mac+0x6>
    10b6:	81 e0       	ldi	r24, 0x01	; 1
    if(a[i] != b[i])
      return 0;
  return 1;
}
    10b8:	08 95       	ret

000010ba <net_compare_ip>:

uint8_t  net_compare_ip(const uint8_t *a, const uint8_t *b) {
    10ba:	ac 01       	movw	r20, r24
    10bc:	20 e0       	ldi	r18, 0x00	; 0
    10be:	30 e0       	ldi	r19, 0x00	; 0
	uint8_t i;
  for(i=0;i<4;i++)
    if(a[i] != b[i])
    10c0:	fa 01       	movw	r30, r20
    10c2:	e2 0f       	add	r30, r18
    10c4:	f3 1f       	adc	r31, r19
    10c6:	db 01       	movw	r26, r22
    10c8:	a2 0f       	add	r26, r18
    10ca:	b3 1f       	adc	r27, r19
    10cc:	90 81       	ld	r25, Z
    10ce:	8c 91       	ld	r24, X
    10d0:	98 17       	cp	r25, r24
    10d2:	11 f0       	breq	.+4      	; 0x10d8 <net_compare_ip+0x1e>
    10d4:	80 e0       	ldi	r24, 0x00	; 0
    10d6:	08 95       	ret
    10d8:	2f 5f       	subi	r18, 0xFF	; 255
    10da:	3f 4f       	sbci	r19, 0xFF	; 255
  return 1;
}

uint8_t  net_compare_ip(const uint8_t *a, const uint8_t *b) {
	uint8_t i;
  for(i=0;i<4;i++)
    10dc:	24 30       	cpi	r18, 0x04	; 4
    10de:	31 05       	cpc	r19, r1
    10e0:	79 f7       	brne	.-34     	; 0x10c0 <net_compare_ip+0x6>
    10e2:	81 e0       	ldi	r24, 0x01	; 1
    if(a[i] != b[i])
      return 0;
  return 1;
}
    10e4:	08 95       	ret

000010e6 <net_dump_ip>:
    mac[i] = value;
  }
  return 1;
}

void net_dump_ip(const uint8_t *in) {
    10e6:	ef 92       	push	r14
    10e8:	ff 92       	push	r15
    10ea:	0f 93       	push	r16
    10ec:	1f 93       	push	r17
    10ee:	cf 93       	push	r28
    10f0:	df 93       	push	r29
  uint8_t pos = 0;
  uint8_t i;
  for(i=0;i<4;i++) {
    byte_to_dec(in[i],(uint8_t *)(ip_str+pos));
    10f2:	20 91 24 01 	lds	r18, 0x0124
    10f6:	30 91 25 01 	lds	r19, 0x0125
    10fa:	8c 01       	movw	r16, r24
    10fc:	e9 01       	movw	r28, r18
}

void net_dump_ip(const uint8_t *in) {
  uint8_t pos = 0;
  uint8_t i;
  for(i=0;i<4;i++) {
    10fe:	ee 24       	eor	r14, r14
    1100:	ff 24       	eor	r15, r15
    1102:	68 94       	set
    1104:	e4 f8       	bld	r14, 4
    1106:	e2 0e       	add	r14, r18
    1108:	f3 1e       	adc	r15, r19
    byte_to_dec(in[i],(uint8_t *)(ip_str+pos));
    110a:	f8 01       	movw	r30, r16
    110c:	81 91       	ld	r24, Z+
    110e:	8f 01       	movw	r16, r30
    1110:	be 01       	movw	r22, r28
    1112:	0e 94 00 03 	call	0x600	; 0x600 <byte_to_dec>
    1116:	24 96       	adiw	r28, 0x04	; 4
}

void net_dump_ip(const uint8_t *in) {
  uint8_t pos = 0;
  uint8_t i;
  for(i=0;i<4;i++) {
    1118:	ce 15       	cp	r28, r14
    111a:	df 05       	cpc	r29, r15
    111c:	b1 f7       	brne	.-20     	; 0x110a <net_dump_ip+0x24>
    byte_to_dec(in[i],(uint8_t *)(ip_str+pos));
    pos += 4;
  }
  // NOTE: UART - ip_str
}
    111e:	df 91       	pop	r29
    1120:	cf 91       	pop	r28
    1122:	1f 91       	pop	r17
    1124:	0f 91       	pop	r16
    1126:	ff 90       	pop	r15
    1128:	ef 90       	pop	r14
    112a:	08 95       	ret

0000112c <net_parse_mac>:
    ip[i] = value;
  }
  return 1;
}

uint8_t net_parse_mac(const uint8_t *buf, uint8_t *mac) {
    112c:	af 92       	push	r10
    112e:	bf 92       	push	r11
    1130:	cf 92       	push	r12
    1132:	df 92       	push	r13
    1134:	ef 92       	push	r14
    1136:	ff 92       	push	r15
    1138:	0f 93       	push	r16
    113a:	1f 93       	push	r17
    113c:	df 93       	push	r29
    113e:	cf 93       	push	r28
    1140:	0f 92       	push	r0
    1142:	cd b7       	in	r28, 0x3d	; 61
    1144:	de b7       	in	r29, 0x3e	; 62
    1146:	7c 01       	movw	r14, r24
    1148:	6b 01       	movw	r12, r22
    114a:	00 e0       	ldi	r16, 0x00	; 0
    114c:	10 e0       	ldi	r17, 0x00	; 0
	uint8_t i;
  for(i=0;i<6;i++) {
    uint8_t value;
    if(!parse_byte(buf, &value)) {
    114e:	5e 01       	movw	r10, r28
    1150:	08 94       	sec
    1152:	a1 1c       	adc	r10, r1
    1154:	b1 1c       	adc	r11, r1
    1156:	c7 01       	movw	r24, r14
    1158:	b5 01       	movw	r22, r10
    115a:	0e 94 7e 03 	call	0x6fc	; 0x6fc <parse_byte>
    115e:	88 23       	and	r24, r24
    1160:	89 f0       	breq	.+34     	; 0x1184 <net_parse_mac+0x58>
      return 0;
    }
    buf += 3;
    mac[i] = value;
    1162:	f6 01       	movw	r30, r12
    1164:	e0 0f       	add	r30, r16
    1166:	f1 1f       	adc	r31, r17
    1168:	89 81       	ldd	r24, Y+1	; 0x01
    116a:	80 83       	st	Z, r24
    116c:	0f 5f       	subi	r16, 0xFF	; 255
    116e:	1f 4f       	sbci	r17, 0xFF	; 255
  return 1;
}

uint8_t net_parse_mac(const uint8_t *buf, uint8_t *mac) {
	uint8_t i;
  for(i=0;i<6;i++) {
    1170:	06 30       	cpi	r16, 0x06	; 6
    1172:	11 05       	cpc	r17, r1
    1174:	11 f4       	brne	.+4      	; 0x117a <net_parse_mac+0x4e>
    1176:	81 e0       	ldi	r24, 0x01	; 1
    1178:	06 c0       	rjmp	.+12     	; 0x1186 <net_parse_mac+0x5a>
    uint8_t value;
    if(!parse_byte(buf, &value)) {
      return 0;
    }
    buf += 3;
    117a:	83 e0       	ldi	r24, 0x03	; 3
    117c:	90 e0       	ldi	r25, 0x00	; 0
    117e:	e8 0e       	add	r14, r24
    1180:	f9 1e       	adc	r15, r25
    1182:	e9 cf       	rjmp	.-46     	; 0x1156 <net_parse_mac+0x2a>
    1184:	80 e0       	ldi	r24, 0x00	; 0
    mac[i] = value;
  }
  return 1;
}
    1186:	0f 90       	pop	r0
    1188:	cf 91       	pop	r28
    118a:	df 91       	pop	r29
    118c:	1f 91       	pop	r17
    118e:	0f 91       	pop	r16
    1190:	ff 90       	pop	r15
    1192:	ef 90       	pop	r14
    1194:	df 90       	pop	r13
    1196:	cf 90       	pop	r12
    1198:	bf 90       	pop	r11
    119a:	af 90       	pop	r10
    119c:	08 95       	ret

0000119e <net_parse_ip>:
    pos += 3;
  }
  // NOTE: UART - mac_str
}

uint8_t net_parse_ip(const uint8_t *buf, uint8_t *ip) {
    119e:	af 92       	push	r10
    11a0:	bf 92       	push	r11
    11a2:	cf 92       	push	r12
    11a4:	df 92       	push	r13
    11a6:	ef 92       	push	r14
    11a8:	ff 92       	push	r15
    11aa:	0f 93       	push	r16
    11ac:	1f 93       	push	r17
    11ae:	df 93       	push	r29
    11b0:	cf 93       	push	r28
    11b2:	0f 92       	push	r0
    11b4:	cd b7       	in	r28, 0x3d	; 61
    11b6:	de b7       	in	r29, 0x3e	; 62
    11b8:	7c 01       	movw	r14, r24
    11ba:	6b 01       	movw	r12, r22
    11bc:	00 e0       	ldi	r16, 0x00	; 0
    11be:	10 e0       	ldi	r17, 0x00	; 0
	uint8_t i;
  for(i=0;i<4;i++) {
    uint8_t value;
    uint8_t digits = parse_byte_dec(buf,&value);
    11c0:	5e 01       	movw	r10, r28
    11c2:	08 94       	sec
    11c4:	a1 1c       	adc	r10, r1
    11c6:	b1 1c       	adc	r11, r1
    11c8:	c7 01       	movw	r24, r14
    11ca:	b5 01       	movw	r22, r10
    11cc:	0e 94 47 04 	call	0x88e	; 0x88e <parse_byte_dec>
    11d0:	98 2f       	mov	r25, r24
    if(digits == 0)
    11d2:	88 23       	and	r24, r24
    11d4:	91 f0       	breq	.+36     	; 0x11fa <net_parse_ip+0x5c>
      return 0;
    buf += digits + 1;
    ip[i] = value;
    11d6:	f6 01       	movw	r30, r12
    11d8:	e0 0f       	add	r30, r16
    11da:	f1 1f       	adc	r31, r17
    11dc:	89 81       	ldd	r24, Y+1	; 0x01
    11de:	80 83       	st	Z, r24
    11e0:	0f 5f       	subi	r16, 0xFF	; 255
    11e2:	1f 4f       	sbci	r17, 0xFF	; 255
  // NOTE: UART - mac_str
}

uint8_t net_parse_ip(const uint8_t *buf, uint8_t *ip) {
	uint8_t i;
  for(i=0;i<4;i++) {
    11e4:	04 30       	cpi	r16, 0x04	; 4
    11e6:	11 05       	cpc	r17, r1
    11e8:	11 f4       	brne	.+4      	; 0x11ee <net_parse_ip+0x50>
    11ea:	81 e0       	ldi	r24, 0x01	; 1
    11ec:	07 c0       	rjmp	.+14     	; 0x11fc <net_parse_ip+0x5e>
    uint8_t value;
    uint8_t digits = parse_byte_dec(buf,&value);
    if(digits == 0)
      return 0;
    buf += digits + 1;
    11ee:	89 2f       	mov	r24, r25
    11f0:	90 e0       	ldi	r25, 0x00	; 0
    11f2:	01 96       	adiw	r24, 0x01	; 1
    11f4:	e8 0e       	add	r14, r24
    11f6:	f9 1e       	adc	r15, r25
    11f8:	e7 cf       	rjmp	.-50     	; 0x11c8 <net_parse_ip+0x2a>
    11fa:	80 e0       	ldi	r24, 0x00	; 0
    ip[i] = value;
  }
  return 1;
}
    11fc:	0f 90       	pop	r0
    11fe:	cf 91       	pop	r28
    1200:	df 91       	pop	r29
    1202:	1f 91       	pop	r17
    1204:	0f 91       	pop	r16
    1206:	ff 90       	pop	r15
    1208:	ef 90       	pop	r14
    120a:	df 90       	pop	r13
    120c:	cf 90       	pop	r12
    120e:	bf 90       	pop	r11
    1210:	af 90       	pop	r10
    1212:	08 95       	ret

00001214 <net_dump_mac>:
}

static char *mac_str = "00:00:00:00:00:00";
static char *ip_str = "000.000.000.000";

void net_dump_mac(const uint8_t *in) {
    1214:	ef 92       	push	r14
    1216:	ff 92       	push	r15
    1218:	0f 93       	push	r16
    121a:	1f 93       	push	r17
    121c:	cf 93       	push	r28
    121e:	df 93       	push	r29
  int pos = 0;
  uint8_t i;
  for(i=0;i<6;i++) {
    byte_to_hex(in[i],(uint8_t *)(mac_str+pos));
    1220:	20 91 38 01 	lds	r18, 0x0138
    1224:	30 91 39 01 	lds	r19, 0x0139
    1228:	8c 01       	movw	r16, r24
    122a:	e9 01       	movw	r28, r18
static char *ip_str = "000.000.000.000";

void net_dump_mac(const uint8_t *in) {
  int pos = 0;
  uint8_t i;
  for(i=0;i<6;i++) {
    122c:	0f 2e       	mov	r0, r31
    122e:	f2 e1       	ldi	r31, 0x12	; 18
    1230:	ef 2e       	mov	r14, r31
    1232:	ff 24       	eor	r15, r15
    1234:	f0 2d       	mov	r31, r0
    1236:	e2 0e       	add	r14, r18
    1238:	f3 1e       	adc	r15, r19
    byte_to_hex(in[i],(uint8_t *)(mac_str+pos));
    123a:	f8 01       	movw	r30, r16
    123c:	81 91       	ld	r24, Z+
    123e:	8f 01       	movw	r16, r30
    1240:	be 01       	movw	r22, r28
    1242:	0e 94 be 02 	call	0x57c	; 0x57c <byte_to_hex>
    1246:	23 96       	adiw	r28, 0x03	; 3
static char *ip_str = "000.000.000.000";

void net_dump_mac(const uint8_t *in) {
  int pos = 0;
  uint8_t i;
  for(i=0;i<6;i++) {
    1248:	ce 15       	cp	r28, r14
    124a:	df 05       	cpc	r29, r15
    124c:	b1 f7       	brne	.-20     	; 0x123a <net_dump_mac+0x26>
    byte_to_hex(in[i],(uint8_t *)(mac_str+pos));
    pos += 3;
  }
  // NOTE: UART - mac_str
}
    124e:	df 91       	pop	r29
    1250:	cf 91       	pop	r28
    1252:	1f 91       	pop	r17
    1254:	0f 91       	pop	r16
    1256:	ff 90       	pop	r15
    1258:	ef 90       	pop	r14
    125a:	08 95       	ret

0000125c <par_low_init>:
#include "pinout.h"


void par_low_init(void) {
	// Zero status direction and pin state
  PAR_STATUS_DDR &= ~PAR_STATUS_MASK;
    125c:	a7 e2       	ldi	r26, 0x27	; 39
    125e:	b0 e0       	ldi	r27, 0x00	; 0
    1260:	8c 91       	ld	r24, X
    1262:	80 7e       	andi	r24, 0xE0	; 224
    1264:	8c 93       	st	X, r24
  PAR_STATUS_PORT &= ~PAR_STATUS_MASK;
    1266:	e8 e2       	ldi	r30, 0x28	; 40
    1268:	f0 e0       	ldi	r31, 0x00	; 0
    126a:	80 81       	ld	r24, Z
    126c:	80 7e       	andi	r24, 0xE0	; 224
    126e:	80 83       	st	Z, r24
	// NStrobe: input, pulled high
	// Select: input, pulled high
	// Busy: output, default: 0
	// POut: input, pulled high
	// NAck: output, default: 1
  PAR_STATUS_DDR |= BUSY | NACK;
    1270:	8c 91       	ld	r24, X
    1272:	86 60       	ori	r24, 0x06	; 6
    1274:	8c 93       	st	X, r24
  PAR_STATUS_PORT |= NSTROBE | SEL | POUT | NACK;
    1276:	80 81       	ld	r24, Z
    1278:	8b 61       	ori	r24, 0x1B	; 27
    127a:	80 83       	st	Z, r24

  PAR_DATA_DDR = 0xFF;
    127c:	8f ef       	ldi	r24, 0xFF	; 255
    127e:	8a b9       	out	0x0a, r24	; 10
}
    1280:	08 95       	ret

00001282 <par_low_pulse_ack>:

// data bus

void par_low_pulse_ack(uint8_t delay)
{
  PAR_STATUS_PORT &= ~NACK;
    1282:	e8 e2       	ldi	r30, 0x28	; 40
    1284:	f0 e0       	ldi	r31, 0x00	; 0
    1286:	90 81       	ld	r25, Z
    1288:	9d 7f       	andi	r25, 0xFD	; 253
    128a:	90 83       	st	Z, r25
    can be achieved.
*/
void
_delay_loop_1(uint8_t __count)
{
	__asm__ volatile (
    128c:	8a 95       	dec	r24
    128e:	f1 f7       	brne	.-4      	; 0x128c <par_low_pulse_ack+0xa>
  _delay_loop_1(delay);
  PAR_STATUS_PORT |= NACK;
    1290:	80 81       	ld	r24, Z
    1292:	82 60       	ori	r24, 0x02	; 2
    1294:	80 83       	st	Z, r24
}
    1296:	08 95       	ret

00001298 <param_dump>:
	// NOTE: UART - \r\n tt: packet type param.test_ptype
	// NOTE: UART - \r\n ti: ip address param.test_ip
	// NOTE: UART - \r\n tp: udp port param.test_port
	// NOTE: UART - \r\n tm: test mode param.test_mode
	// NOTE: UART - \r\n
}
    1298:	08 95       	ret

0000129a <calc_crc16>:

// build check sum for parameter block
static uint16_t calc_crc16(param_t *p)
{
  uint16_t crc16 = 0xffff;
  uint8_t *data = (uint8_t *)p;
    129a:	fc 01       	movw	r30, r24
    129c:	4f ef       	ldi	r20, 0xFF	; 255
    129e:	5f ef       	ldi	r21, 0xFF	; 255
    12a0:	20 e0       	ldi	r18, 0x00	; 0
    12a2:	30 e0       	ldi	r19, 0x00	; 0
_crc16_update(uint16_t __crc, uint8_t __data)
{
	uint8_t __tmp;
	uint16_t __ret;

	__asm__ __volatile__ (
    12a4:	81 91       	ld	r24, Z+
    12a6:	48 27       	eor	r20, r24
    12a8:	84 2f       	mov	r24, r20
    12aa:	82 95       	swap	r24
    12ac:	84 27       	eor	r24, r20
    12ae:	08 2e       	mov	r0, r24
    12b0:	86 95       	lsr	r24
    12b2:	86 95       	lsr	r24
    12b4:	80 25       	eor	r24, r0
    12b6:	08 2e       	mov	r0, r24
    12b8:	86 95       	lsr	r24
    12ba:	80 25       	eor	r24, r0
    12bc:	87 70       	andi	r24, 0x07	; 7
    12be:	04 2e       	mov	r0, r20
    12c0:	45 2f       	mov	r20, r21
    12c2:	86 95       	lsr	r24
    12c4:	07 94       	ror	r0
    12c6:	87 95       	ror	r24
    12c8:	50 2d       	mov	r21, r0
    12ca:	48 27       	eor	r20, r24
    12cc:	06 94       	lsr	r0
    12ce:	87 95       	ror	r24
    12d0:	50 25       	eor	r21, r0
    12d2:	48 27       	eor	r20, r24
  uint16_t i;
  for(i=0;i<sizeof(param_t);i++) {
    12d4:	2f 5f       	subi	r18, 0xFF	; 255
    12d6:	3f 4f       	sbci	r19, 0xFF	; 255
    12d8:	23 31       	cpi	r18, 0x13	; 19
    12da:	31 05       	cpc	r19, r1
    12dc:	19 f7       	brne	.-58     	; 0x12a4 <calc_crc16+0xa>
    crc16 = _crc16_update(crc16,*data);
    data++;
  }
  return crc16;
}
    12de:	84 2f       	mov	r24, r20
    12e0:	95 2f       	mov	r25, r21
    12e2:	08 95       	ret

000012e4 <param_reset>:

  return PARAM_OK;
}

void param_reset(void)
{
    12e4:	a3 e6       	ldi	r26, 0x63	; 99
    12e6:	b1 e0       	ldi	r27, 0x01	; 1
    12e8:	2b e9       	ldi	r18, 0x9B	; 155
    12ea:	33 e0       	ldi	r19, 0x03	; 3
	uint8_t i;
  // restore default param
  uint8_t *out = (uint8_t *)&param;
  const uint8_t *in = (const uint8_t *)&default_param;
  for(i=0;i<sizeof(param_t);i++) {
    12ec:	46 e7       	ldi	r20, 0x76	; 118
    12ee:	51 e0       	ldi	r21, 0x01	; 1

  return PARAM_OK;
}

void param_reset(void)
{
    12f0:	f9 01       	movw	r30, r18
	uint8_t i;
  // restore default param
  uint8_t *out = (uint8_t *)&param;
  const uint8_t *in = (const uint8_t *)&default_param;
  for(i=0;i<sizeof(param_t);i++) {
    *(out++) = pgm_read_byte_near(in++);
    12f2:	2f 5f       	subi	r18, 0xFF	; 255
    12f4:	3f 4f       	sbci	r19, 0xFF	; 255
    12f6:	e4 91       	lpm	r30, Z+
    12f8:	ed 93       	st	X+, r30
{
	uint8_t i;
  // restore default param
  uint8_t *out = (uint8_t *)&param;
  const uint8_t *in = (const uint8_t *)&default_param;
  for(i=0;i<sizeof(param_t);i++) {
    12fa:	a4 17       	cp	r26, r20
    12fc:	b5 07       	cpc	r27, r21
    12fe:	c1 f7       	brne	.-16     	; 0x12f0 <param_reset+0xc>
    *(out++) = pgm_read_byte_near(in++);
  }
}
    1300:	08 95       	ret

00001302 <param_load>:

  return PARAM_OK;
}

uint8_t param_load(void)
{
    1302:	ef 92       	push	r14
    1304:	ff 92       	push	r15
    1306:	0f 93       	push	r16
    1308:	1f 93       	push	r17
  // check that eeprom is readable
  if(!eeprom_is_ready())
    130a:	f9 9b       	sbis	0x1f, 1	; 31
    130c:	02 c0       	rjmp	.+4      	; 0x1312 <param_load+0x10>
    130e:	81 e0       	ldi	r24, 0x01	; 1
    1310:	1d c0       	rjmp	.+58     	; 0x134c <param_load+0x4a>
    return PARAM_EEPROM_NOT_READY;

  // read param
  eeprom_read_block(&param,&eeprom_param,sizeof(param_t));
    1312:	0f 2e       	mov	r0, r31
    1314:	f3 e6       	ldi	r31, 0x63	; 99
    1316:	ef 2e       	mov	r14, r31
    1318:	f1 e0       	ldi	r31, 0x01	; 1
    131a:	ff 2e       	mov	r15, r31
    131c:	f0 2d       	mov	r31, r0
    131e:	c7 01       	movw	r24, r14
    1320:	60 e0       	ldi	r22, 0x00	; 0
    1322:	70 e0       	ldi	r23, 0x00	; 0
    1324:	43 e1       	ldi	r20, 0x13	; 19
    1326:	50 e0       	ldi	r21, 0x00	; 0
    1328:	0e 94 ac 13 	call	0x2758	; 0x2758 <__eerd_block_m328p>

  // read crc16
  uint16_t crc16 = eeprom_read_word(&eeprom_crc16);
    132c:	83 e1       	ldi	r24, 0x13	; 19
    132e:	90 e0       	ldi	r25, 0x00	; 0
    1330:	0e 94 bc 13 	call	0x2778	; 0x2778 <__eerd_word_m328p>
    1334:	8c 01       	movw	r16, r24
  uint16_t my_crc16 = calc_crc16(&param);
    1336:	c7 01       	movw	r24, r14
    1338:	0e 94 4d 09 	call	0x129a	; 0x129a <calc_crc16>
  if(crc16 != my_crc16) {
    133c:	08 17       	cp	r16, r24
    133e:	19 07       	cpc	r17, r25
    1340:	11 f4       	brne	.+4      	; 0x1346 <param_load+0x44>
    1342:	80 e0       	ldi	r24, 0x00	; 0
    1344:	03 c0       	rjmp	.+6      	; 0x134c <param_load+0x4a>
    param_reset();
    1346:	0e 94 72 09 	call	0x12e4	; 0x12e4 <param_reset>
    134a:	82 e0       	ldi	r24, 0x02	; 2
    return PARAM_EEPROM_CRC_MISMATCH;
  }

  return PARAM_OK;
}
    134c:	1f 91       	pop	r17
    134e:	0f 91       	pop	r16
    1350:	ff 90       	pop	r15
    1352:	ef 90       	pop	r14
    1354:	08 95       	ret

00001356 <param_init>:
  }
}

void param_init(void)
{
  if(param_load()!=PARAM_OK)
    1356:	0e 94 81 09 	call	0x1302	; 0x1302 <param_load>
    135a:	88 23       	and	r24, r24
    135c:	11 f0       	breq	.+4      	; 0x1362 <param_init+0xc>
    param_reset();
    135e:	0e 94 72 09 	call	0x12e4	; 0x12e4 <param_reset>
    1362:	08 95       	ret

00001364 <param_save>:
  }
  return crc16;
}

uint8_t param_save(void)
{
    1364:	0f 93       	push	r16
    1366:	1f 93       	push	r17
  // check that eeprom is writable
  if(!eeprom_is_ready())
    1368:	f9 9b       	sbis	0x1f, 1	; 31
    136a:	02 c0       	rjmp	.+4      	; 0x1370 <param_save+0xc>
    136c:	81 e0       	ldi	r24, 0x01	; 1
    136e:	12 c0       	rjmp	.+36     	; 0x1394 <param_save+0x30>
    return PARAM_EEPROM_NOT_READY;

  // write current param to eeprom
  eeprom_write_block(&param,&eeprom_param,sizeof(param_t));
    1370:	03 e6       	ldi	r16, 0x63	; 99
    1372:	11 e0       	ldi	r17, 0x01	; 1
    1374:	c8 01       	movw	r24, r16
    1376:	60 e0       	ldi	r22, 0x00	; 0
    1378:	70 e0       	ldi	r23, 0x00	; 0
    137a:	43 e1       	ldi	r20, 0x13	; 19
    137c:	50 e0       	ldi	r21, 0x00	; 0
    137e:	0e 94 c2 13 	call	0x2784	; 0x2784 <__eewr_block_m328p>

  // calc current parameter crc
  uint16_t crc16 = calc_crc16(&param);
    1382:	c8 01       	movw	r24, r16
    1384:	0e 94 4d 09 	call	0x129a	; 0x129a <calc_crc16>
    1388:	bc 01       	movw	r22, r24
  eeprom_write_word(&eeprom_crc16,crc16);
    138a:	83 e1       	ldi	r24, 0x13	; 19
    138c:	90 e0       	ldi	r25, 0x00	; 0
    138e:	0e 94 da 13 	call	0x27b4	; 0x27b4 <__eewr_word_m328p>
    1392:	80 e0       	ldi	r24, 0x00	; 0

  return PARAM_OK;
}
    1394:	1f 91       	pop	r17
    1396:	0f 91       	pop	r16
    1398:	08 95       	ret

0000139a <pb_proto_init>:

// ----- Init -----

void pb_proto_init(pb_proto_fill_func ff, pb_proto_proc_func pf, uint8_t *buf, uint16_t buf_size)
{
  fill_func = ff;
    139a:	90 93 45 01 	sts	0x0145, r25
    139e:	80 93 44 01 	sts	0x0144, r24
  proc_func = pf;
    13a2:	70 93 47 01 	sts	0x0147, r23
    13a6:	60 93 46 01 	sts	0x0146, r22
  pb_buf = buf;
    13aa:	50 93 49 01 	sts	0x0149, r21
    13ae:	40 93 48 01 	sts	0x0148, r20
  pb_buf_size = buf_size;
    13b2:	30 93 4b 01 	sts	0x014B, r19
    13b6:	20 93 4a 01 	sts	0x014A, r18

  // init signals
  PAR_DATA_DDR = 0x00;
    13ba:	1a b8       	out	0x0a, r1	; 10
  PAR_STATUS_PIN &= ~BUSY;
    13bc:	e6 e2       	ldi	r30, 0x26	; 38
    13be:	f0 e0       	ldi	r31, 0x00	; 0
    13c0:	80 81       	ld	r24, Z
    13c2:	8b 7f       	andi	r24, 0xFB	; 251
    13c4:	80 83       	st	Z, r24
}
    13c6:	08 95       	ret

000013c8 <pb_proto_get_line_status>:

uint8_t pb_proto_get_line_status(void) {
	uint8_t ubIn, ubStrobe, ubSelect, ubPOut;
	ubIn = PAR_STATUS_PIN;
    13c8:	86 b1       	in	r24, 0x06	; 6
    13ca:	28 2f       	mov	r18, r24
    13cc:	30 e0       	ldi	r19, 0x00	; 0
    13ce:	20 71       	andi	r18, 0x10	; 16
    13d0:	30 70       	andi	r19, 0x00	; 0
    13d2:	35 95       	asr	r19
    13d4:	27 95       	ror	r18
    13d6:	35 95       	asr	r19
    13d8:	27 95       	ror	r18
    13da:	35 95       	asr	r19
    13dc:	27 95       	ror	r18
    13de:	35 95       	asr	r19
    13e0:	27 95       	ror	r18
    13e2:	22 0f       	add	r18, r18
    13e4:	33 1f       	adc	r19, r19
    13e6:	88 70       	andi	r24, 0x08	; 8
    13e8:	88 0f       	add	r24, r24
    13ea:	88 0f       	add	r24, r24
  ubStrobe = (ubIn & NSTROBE) >> POUT_PIN;
  ubSelect = (ubIn & SEL)     >> SEL_PIN;
  ubPOut   = (ubIn & POUT)    >> NSTROBE_PIN;
  return ((ubPOut << 2) | (ubSelect << 1) | ubStrobe);
}
    13ec:	82 2b       	or	r24, r18
    13ee:	08 95       	ret

000013f0 <wait_req>:
 * Waits for PaperOut pin state specified by ubReqValue, for ubStateFlag purposes.
 * @param ubReqValue Requested PaperOut pin state (1: hi, 0: lo)
 * @param ubStateFlag For debugging purposes. Flag is appended to return value.
 * @return wait result - PBPROTO_STATUS_OK on success, otherwise error occured.
 */
static uint8_t wait_req(uint8_t ubReqValue, uint8_t ubStateFlag) {
    13f0:	78 2f       	mov	r23, r24
  // wait for new REQ value
  timer_100us = 0;
    13f2:	10 92 62 01 	sts	0x0162, r1
    13f6:	10 92 61 01 	sts	0x0161, r1
  while(timer_100us < pb_proto_timeout) {
    13fa:	40 91 3a 01 	lds	r20, 0x013A
    13fe:	50 91 3b 01 	lds	r21, 0x013B
		uint8_t ubIn = PAR_STATUS_PIN;
    1402:	e6 e2       	ldi	r30, 0x26	; 38
    1404:	f0 e0       	ldi	r31, 0x00	; 0
    1406:	15 c0       	rjmp	.+42     	; 0x1432 <wait_req+0x42>
    1408:	80 81       	ld	r24, Z
    uint8_t ubPOut = (ubIn & POUT) >> POUT_PIN;
    140a:	28 2f       	mov	r18, r24
    140c:	30 e0       	ldi	r19, 0x00	; 0
    if(ubReqValue == ubPOut)
    140e:	c9 01       	movw	r24, r18
    1410:	88 70       	andi	r24, 0x08	; 8
    1412:	90 70       	andi	r25, 0x00	; 0
    1414:	95 95       	asr	r25
    1416:	87 95       	ror	r24
    1418:	95 95       	asr	r25
    141a:	87 95       	ror	r24
    141c:	95 95       	asr	r25
    141e:	87 95       	ror	r24
    1420:	78 17       	cp	r23, r24
    1422:	11 f4       	brne	.+4      	; 0x1428 <wait_req+0x38>
    1424:	81 e0       	ldi	r24, 0x01	; 1
    1426:	08 95       	ret
      return PBPROTO_STATUS_OK;
    // during transfer client aborted and removed SEL
    if(!(ubIn & SEL))
    1428:	24 fd       	sbrc	r18, 4
    142a:	03 c0       	rjmp	.+6      	; 0x1432 <wait_req+0x42>
      return PBPROTO_STATUS_LOST_SELECT | ubStateFlag;
    142c:	86 2f       	mov	r24, r22
    142e:	83 60       	ori	r24, 0x03	; 3
    1430:	08 95       	ret
 * @return wait result - PBPROTO_STATUS_OK on success, otherwise error occured.
 */
static uint8_t wait_req(uint8_t ubReqValue, uint8_t ubStateFlag) {
  // wait for new REQ value
  timer_100us = 0;
  while(timer_100us < pb_proto_timeout) {
    1432:	80 91 61 01 	lds	r24, 0x0161
    1436:	90 91 62 01 	lds	r25, 0x0162
    143a:	84 17       	cp	r24, r20
    143c:	95 07       	cpc	r25, r21
    143e:	20 f3       	brcs	.-56     	; 0x1408 <wait_req+0x18>
      return PBPROTO_STATUS_OK;
    // during transfer client aborted and removed SEL
    if(!(ubIn & SEL))
      return PBPROTO_STATUS_LOST_SELECT | ubStateFlag;
  }
  return PBPROTO_STATUS_TIMEOUT | ubStateFlag;
    1440:	86 2f       	mov	r24, r22
    1442:	82 60       	ori	r24, 0x02	; 2
}
    1444:	08 95       	ret

00001446 <pb_proto_handle>:
 * - prepares response for recv
 * - does normal/burst comm with Amiga
 * - waits for SEL=0, then sets BUSY=0
 * - processes packet sent by Amiga
 */
uint8_t pb_proto_handle(void) {
    1446:	2f 92       	push	r2
    1448:	3f 92       	push	r3
    144a:	4f 92       	push	r4
    144c:	5f 92       	push	r5
    144e:	6f 92       	push	r6
    1450:	7f 92       	push	r7
    1452:	8f 92       	push	r8
    1454:	9f 92       	push	r9
    1456:	af 92       	push	r10
    1458:	bf 92       	push	r11
    145a:	cf 92       	push	r12
    145c:	df 92       	push	r13
    145e:	ef 92       	push	r14
    1460:	ff 92       	push	r15
    1462:	0f 93       	push	r16
    1464:	1f 93       	push	r17
    1466:	df 93       	push	r29
    1468:	cf 93       	push	r28
    146a:	00 d0       	rcall	.+0      	; 0x146c <pb_proto_handle+0x26>
    146c:	cd b7       	in	r28, 0x3d	; 61
    146e:	de b7       	in	r29, 0x3e	; 62
  uint8_t result;
  pb_proto_stat_t *ps = &pb_proto_stat;

  // handle server side of plipbox protocol
  ps->cmd = 0;
    1470:	10 92 76 01 	sts	0x0176, r1

  // make sure that SEL == 1 and REQ == 0
  if(!(PAR_STATUS_PIN & SEL) || (PAR_STATUS_PIN & POUT)) {
    1474:	34 9b       	sbis	0x06, 4	; 6
    1476:	02 c0       	rjmp	.+4      	; 0x147c <pb_proto_handle+0x36>
    1478:	33 9b       	sbis	0x06, 3	; 6
    147a:	04 c0       	rjmp	.+8      	; 0x1484 <pb_proto_handle+0x3e>
    ps->status = PBPROTO_STATUS_IDLE;
    147c:	10 92 77 01 	sts	0x0177, r1
    1480:	80 e0       	ldi	r24, 0x00	; 0
    1482:	c4 c2       	rjmp	.+1416   	; 0x1a0c <pb_proto_handle+0x5c6>
    return PBPROTO_STATUS_IDLE;
  }

  // Read command byte
  uint8_t cmd = PAR_DATA_PIN;
    1484:	a9 b0       	in	r10, 0x09	; 9

  // fill buffer for recv command
  /// Amiga wants to receive data - prepare
  uint16_t pkt_size = 0;
    1486:	1a 82       	std	Y+2, r1	; 0x02
    1488:	19 82       	std	Y+1, r1	; 0x01
  if((cmd == PBPROTO_CMD_RECV) || (cmd == PBPROTO_CMD_RECV_BURST)) {
    148a:	82 e2       	ldi	r24, 0x22	; 34
    148c:	a8 16       	cp	r10, r24
    148e:	19 f0       	breq	.+6      	; 0x1496 <pb_proto_handle+0x50>
    1490:	a4 e4       	ldi	r26, 0x44	; 68
    1492:	aa 16       	cp	r10, r26
    1494:	a9 f4       	brne	.+42     	; 0x14c0 <pb_proto_handle+0x7a>
    uint8_t res = fill_func(pb_buf, pb_buf_size, &pkt_size);
    1496:	60 91 4a 01 	lds	r22, 0x014A
    149a:	70 91 4b 01 	lds	r23, 0x014B
    149e:	e0 91 44 01 	lds	r30, 0x0144
    14a2:	f0 91 45 01 	lds	r31, 0x0145
    14a6:	80 91 48 01 	lds	r24, 0x0148
    14aa:	90 91 49 01 	lds	r25, 0x0149
    14ae:	ae 01       	movw	r20, r28
    14b0:	4f 5f       	subi	r20, 0xFF	; 255
    14b2:	5f 4f       	sbci	r21, 0xFF	; 255
    14b4:	09 95       	icall
    if(res != PBPROTO_STATUS_OK) {
    14b6:	81 30       	cpi	r24, 0x01	; 1
    14b8:	19 f0       	breq	.+6      	; 0x14c0 <pb_proto_handle+0x7a>
      ps->status = res;
    14ba:	80 93 77 01 	sts	0x0177, r24
    14be:	a6 c2       	rjmp	.+1356   	; 0x1a0c <pb_proto_handle+0x5c6>
      return res;
    }
  }

  // start timer
  uint32_t ts = time_stamp;
    14c0:	60 90 5b 01 	lds	r6, 0x015B
    14c4:	70 90 5c 01 	lds	r7, 0x015C
    14c8:	80 90 5d 01 	lds	r8, 0x015D
    14cc:	90 90 5e 01 	lds	r9, 0x015E
    14d0:	10 92 85 00 	sts	0x0085, r1
    14d4:	10 92 84 00 	sts	0x0084, r1
  timer_hw_reset();

  // confirm cmd with RAK = 1
  PAR_STATUS_PORT |= BUSY;
    14d8:	e8 e2       	ldi	r30, 0x28	; 40
    14da:	f0 e0       	ldi	r31, 0x00	; 0
    14dc:	80 81       	ld	r24, Z
    14de:	84 60       	ori	r24, 0x04	; 4
    14e0:	80 83       	st	Z, r24

  uint16_t ret_size = 0;
  switch(cmd) {
    14e2:	b2 e2       	ldi	r27, 0x22	; 34
    14e4:	ab 16       	cp	r10, r27
    14e6:	a1 f0       	breq	.+40     	; 0x1510 <pb_proto_handle+0xca>
    14e8:	ba 15       	cp	r27, r10
    14ea:	20 f0       	brcs	.+8      	; 0x14f4 <pb_proto_handle+0xae>
    14ec:	e1 e1       	ldi	r30, 0x11	; 17
    14ee:	ae 16       	cp	r10, r30
    14f0:	49 f4       	brne	.+18     	; 0x1504 <pb_proto_handle+0xbe>
    14f2:	73 c0       	rjmp	.+230    	; 0x15da <pb_proto_handle+0x194>
    14f4:	f3 e3       	ldi	r31, 0x33	; 51
    14f6:	af 16       	cp	r10, r31
    14f8:	09 f4       	brne	.+2      	; 0x14fc <pb_proto_handle+0xb6>
    14fa:	7b c1       	rjmp	.+758    	; 0x17f2 <pb_proto_handle+0x3ac>
    14fc:	84 e4       	ldi	r24, 0x44	; 68
    14fe:	a8 16       	cp	r10, r24
    1500:	09 f4       	brne	.+2      	; 0x1504 <pb_proto_handle+0xbe>
    1502:	dc c0       	rjmp	.+440    	; 0x16bc <pb_proto_handle+0x276>
    1504:	bb 24       	eor	r11, r11
    1506:	68 94       	set
    1508:	b2 f8       	bld	r11, 2
    150a:	cc 24       	eor	r12, r12
    150c:	dd 24       	eor	r13, r13
    150e:	06 c2       	rjmp	.+1036   	; 0x191c <pb_proto_handle+0x4d6>
    case PBPROTO_CMD_RECV:
      result = cmd_recv(pkt_size, &ret_size);
    1510:	c9 80       	ldd	r12, Y+1	; 0x01
    1512:	da 80       	ldd	r13, Y+2	; 0x02
 */
static uint8_t cmd_recv(uint16_t uwSize, uint16_t *pWriteSize)
{
	uint8_t ubStatus;

  PAR_DATA_DDR = 0xFF;
    1514:	8f ef       	ldi	r24, 0xFF	; 255
    1516:	8a b9       	out	0x0a, r24	; 10

  // Send packet size - high part
  ubStatus = wait_req(1, PBPROTO_STAGE_SIZE_HI);
    1518:	81 e0       	ldi	r24, 0x01	; 1
    151a:	60 e2       	ldi	r22, 0x20	; 32
    151c:	0e 94 f8 09 	call	0x13f0	; 0x13f0 <wait_req>
    1520:	b8 2e       	mov	r11, r24
  if(ubStatus != PBPROTO_STATUS_OK) {
    1522:	a1 e0       	ldi	r26, 0x01	; 1
    1524:	8a 17       	cp	r24, r26
    1526:	09 f0       	breq	.+2      	; 0x152a <pb_proto_handle+0xe4>
    1528:	55 c0       	rjmp	.+170    	; 0x15d4 <pb_proto_handle+0x18e>
    return ubStatus;
    // NOTE(KaiN): return without DDR switchback
  }
  PAR_DATA_PORT = uwSize >> 8;
    152a:	db b8       	out	0x0b, r13	; 11
  PAR_STATUS_PORT &= ~BUSY;
    152c:	e8 e2       	ldi	r30, 0x28	; 40
    152e:	f0 e0       	ldi	r31, 0x00	; 0
    1530:	80 81       	ld	r24, Z
    1532:	8b 7f       	andi	r24, 0xFB	; 251
    1534:	80 83       	st	Z, r24

  // Send packet size - low part
  ubStatus = wait_req(0, PBPROTO_STAGE_SIZE_LO);
    1536:	80 e0       	ldi	r24, 0x00	; 0
    1538:	60 e3       	ldi	r22, 0x30	; 48
    153a:	0e 94 f8 09 	call	0x13f0	; 0x13f0 <wait_req>
    153e:	b8 2e       	mov	r11, r24
  if(ubStatus != PBPROTO_STATUS_OK) {
    1540:	b1 e0       	ldi	r27, 0x01	; 1
    1542:	8b 17       	cp	r24, r27
    1544:	09 f0       	breq	.+2      	; 0x1548 <pb_proto_handle+0x102>
    1546:	46 c0       	rjmp	.+140    	; 0x15d4 <pb_proto_handle+0x18e>
    return ubStatus;
    // NOTE(KaiN): return without DDR switchback
  }
  PAR_DATA_PORT = uwSize & 0xFF;
    1548:	cb b8       	out	0x0b, r12	; 11
  PAR_STATUS_PORT |= BUSY;
    154a:	e8 e2       	ldi	r30, 0x28	; 40
    154c:	f0 e0       	ldi	r31, 0x00	; 0
    154e:	80 81       	ld	r24, Z
    1550:	84 60       	ori	r24, 0x04	; 4
    1552:	80 83       	st	Z, r24

  // --- data ---
  uint16_t uwWriteSize = 0;
  const uint8_t *ptr = pb_buf;
    1554:	e0 90 48 01 	lds	r14, 0x0148
    1558:	f0 90 49 01 	lds	r15, 0x0149
  uint8_t ubPOutWait = 1;
  // Original plipbox had following loop operating on words, so size has to be
  // rounded up
  // TODO(KaiN#9): Make odd transfers safe?
  uwSize = (uwSize+1)&0xFFFE;
    155c:	c6 01       	movw	r24, r12
    155e:	01 96       	adiw	r24, 0x01	; 1
    1560:	0f 2e       	mov	r0, r31
    1562:	fe ef       	ldi	r31, 0xFE	; 254
    1564:	2f 2e       	mov	r2, r31
    1566:	ff ef       	ldi	r31, 0xFF	; 255
    1568:	3f 2e       	mov	r3, r31
    156a:	f0 2d       	mov	r31, r0
    156c:	28 22       	and	r2, r24
    156e:	39 22       	and	r3, r25
  while(uwSize--) {
    1570:	21 14       	cp	r2, r1
    1572:	31 04       	cpc	r3, r1
    1574:	31 f1       	breq	.+76     	; 0x15c2 <pb_proto_handle+0x17c>
    1576:	01 e0       	ldi	r16, 0x01	; 1
    1578:	cc 24       	eor	r12, r12
    157a:	dd 24       	eor	r13, r13
    ubStatus = wait_req(ubPOutWait, PBPROTO_STAGE_DATA);
    if(ubStatus != PBPROTO_STATUS_OK)
      break;
    PAR_DATA_PORT = *(ptr++);
    PAR_STATUS_PORT ^= BUSY;
    157c:	0f 2e       	mov	r0, r31
    157e:	f8 e2       	ldi	r31, 0x28	; 40
    1580:	4f 2e       	mov	r4, r31
    1582:	55 24       	eor	r5, r5
    1584:	f0 2d       	mov	r31, r0
    1586:	14 e0       	ldi	r17, 0x04	; 4
  // Original plipbox had following loop operating on words, so size has to be
  // rounded up
  // TODO(KaiN#9): Make odd transfers safe?
  uwSize = (uwSize+1)&0xFFFE;
  while(uwSize--) {
    ubStatus = wait_req(ubPOutWait, PBPROTO_STAGE_DATA);
    1588:	80 2f       	mov	r24, r16
    158a:	60 e4       	ldi	r22, 0x40	; 64
    158c:	0e 94 f8 09 	call	0x13f0	; 0x13f0 <wait_req>
    1590:	b8 2e       	mov	r11, r24
    if(ubStatus != PBPROTO_STATUS_OK)
    1592:	e1 e0       	ldi	r30, 0x01	; 1
    1594:	8e 17       	cp	r24, r30
    1596:	e1 f4       	brne	.+56     	; 0x15d0 <pb_proto_handle+0x18a>
      break;
    PAR_DATA_PORT = *(ptr++);
    1598:	d7 01       	movw	r26, r14
    159a:	8c 91       	ld	r24, X
    159c:	eb e2       	ldi	r30, 0x2B	; 43
    159e:	f0 e0       	ldi	r31, 0x00	; 0
    15a0:	80 83       	st	Z, r24
    PAR_STATUS_PORT ^= BUSY;
    15a2:	d2 01       	movw	r26, r4
    15a4:	8c 91       	ld	r24, X
    15a6:	81 27       	eor	r24, r17
    15a8:	8c 93       	st	X, r24
    ++uwWriteSize;
    15aa:	08 94       	sec
    15ac:	c1 1c       	adc	r12, r1
    15ae:	d1 1c       	adc	r13, r1
  uint8_t ubPOutWait = 1;
  // Original plipbox had following loop operating on words, so size has to be
  // rounded up
  // TODO(KaiN#9): Make odd transfers safe?
  uwSize = (uwSize+1)&0xFFFE;
  while(uwSize--) {
    15b0:	2c 14       	cp	r2, r12
    15b2:	3d 04       	cpc	r3, r13
    15b4:	41 f0       	breq	.+16     	; 0x15c6 <pb_proto_handle+0x180>
    ubStatus = wait_req(ubPOutWait, PBPROTO_STAGE_DATA);
    if(ubStatus != PBPROTO_STATUS_OK)
      break;
    PAR_DATA_PORT = *(ptr++);
    15b6:	08 94       	sec
    15b8:	e1 1c       	adc	r14, r1
    15ba:	f1 1c       	adc	r15, r1
    PAR_STATUS_PORT ^= BUSY;
    ++uwWriteSize;
    ubPOutWait ^= 1;
    15bc:	b1 e0       	ldi	r27, 0x01	; 1
    15be:	0b 27       	eor	r16, r27
    15c0:	e3 cf       	rjmp	.-58     	; 0x1588 <pb_proto_handle+0x142>
    15c2:	cc 24       	eor	r12, r12
    15c4:	dd 24       	eor	r13, r13
  }

  // Final wait
  if(ubStatus == PBPROTO_STATUS_OK)
    ubStatus = wait_req(1, PBPROTO_STAGE_LAST_DATA);
    15c6:	81 e0       	ldi	r24, 0x01	; 1
    15c8:	60 e5       	ldi	r22, 0x50	; 80
    15ca:	0e 94 f8 09 	call	0x13f0	; 0x13f0 <wait_req>
    15ce:	b8 2e       	mov	r11, r24

  // [IN]
  PAR_DATA_DDR = 0x00;
    15d0:	1a b8       	out	0x0a, r1	; 10
    15d2:	a4 c1       	rjmp	.+840    	; 0x191c <pb_proto_handle+0x4d6>
    15d4:	cc 24       	eor	r12, r12
    15d6:	dd 24       	eor	r13, r13
    15d8:	a1 c1       	rjmp	.+834    	; 0x191c <pb_proto_handle+0x4d6>
{
  uint8_t ubStatus;
  uint16_t uwSize;

  // --- get size hi ---
  ubStatus = wait_req(1, PBPROTO_STAGE_SIZE_HI);
    15da:	81 e0       	ldi	r24, 0x01	; 1
    15dc:	60 e2       	ldi	r22, 0x20	; 32
    15de:	0e 94 f8 09 	call	0x13f0	; 0x13f0 <wait_req>
    15e2:	b8 2e       	mov	r11, r24
  if(ubStatus != PBPROTO_STATUS_OK)
    15e4:	e1 e0       	ldi	r30, 0x01	; 1
    15e6:	8e 17       	cp	r24, r30
    15e8:	09 f0       	breq	.+2      	; 0x15ec <pb_proto_handle+0x1a6>
    15ea:	65 c0       	rjmp	.+202    	; 0x16b6 <pb_proto_handle+0x270>
    return ubStatus;
  uwSize = PAR_DATA_PIN << 8;
    15ec:	09 b1       	in	r16, 0x09	; 9
  PAR_STATUS_PORT &= ~BUSY;
    15ee:	e8 e2       	ldi	r30, 0x28	; 40
    15f0:	f0 e0       	ldi	r31, 0x00	; 0
    15f2:	80 81       	ld	r24, Z
    15f4:	8b 7f       	andi	r24, 0xFB	; 251
    15f6:	80 83       	st	Z, r24

  // --- get size lo ---
  ubStatus = wait_req(0, PBPROTO_STAGE_SIZE_LO);
    15f8:	80 e0       	ldi	r24, 0x00	; 0
    15fa:	60 e3       	ldi	r22, 0x30	; 48
    15fc:	0e 94 f8 09 	call	0x13f0	; 0x13f0 <wait_req>
    1600:	b8 2e       	mov	r11, r24
  if(ubStatus != PBPROTO_STATUS_OK)
    1602:	f1 e0       	ldi	r31, 0x01	; 1
    1604:	8f 17       	cp	r24, r31
    1606:	09 f0       	breq	.+2      	; 0x160a <pb_proto_handle+0x1c4>
    1608:	56 c0       	rjmp	.+172    	; 0x16b6 <pb_proto_handle+0x270>
    return ubStatus;
  uwSize |= PAR_DATA_PIN;
    160a:	29 b1       	in	r18, 0x09	; 9

  // --- get size hi ---
  ubStatus = wait_req(1, PBPROTO_STAGE_SIZE_HI);
  if(ubStatus != PBPROTO_STATUS_OK)
    return ubStatus;
  uwSize = PAR_DATA_PIN << 8;
    160c:	90 2f       	mov	r25, r16
    160e:	80 e0       	ldi	r24, 0x00	; 0

  // --- get size lo ---
  ubStatus = wait_req(0, PBPROTO_STAGE_SIZE_LO);
  if(ubStatus != PBPROTO_STATUS_OK)
    return ubStatus;
  uwSize |= PAR_DATA_PIN;
    1610:	30 e0       	ldi	r19, 0x00	; 0
    1612:	28 2b       	or	r18, r24
    1614:	39 2b       	or	r19, r25
  PAR_STATUS_PORT ^= BUSY;
    1616:	e8 e2       	ldi	r30, 0x28	; 40
    1618:	f0 e0       	ldi	r31, 0x00	; 0
    161a:	80 81       	ld	r24, Z
    161c:	94 e0       	ldi	r25, 0x04	; 4
    161e:	89 27       	eor	r24, r25
    1620:	80 83       	st	Z, r24

  // Check with buffer size
  if(uwSize > pb_buf_size) {
    1622:	80 91 4a 01 	lds	r24, 0x014A
    1626:	90 91 4b 01 	lds	r25, 0x014B
    162a:	82 17       	cp	r24, r18
    162c:	93 07       	cpc	r25, r19
    162e:	38 f4       	brcc	.+14     	; 0x163e <pb_proto_handle+0x1f8>
    1630:	0f 2e       	mov	r0, r31
    1632:	f5 e0       	ldi	r31, 0x05	; 5
    1634:	bf 2e       	mov	r11, r31
    1636:	f0 2d       	mov	r31, r0
    1638:	cc 24       	eor	r12, r12
    163a:	dd 24       	eor	r13, r13
    163c:	6f c1       	rjmp	.+734    	; 0x191c <pb_proto_handle+0x4d6>
  }

  // Original plipbox had following loop operating on words, so size has to be
  // rounded up
  // TODO(KaiN#9): Make odd transfers safe?
  uwSize = (uwSize+1)&0xFFFE;
    163e:	c9 01       	movw	r24, r18
    1640:	01 96       	adiw	r24, 0x01	; 1
    1642:	0f 2e       	mov	r0, r31
    1644:	fe ef       	ldi	r31, 0xFE	; 254
    1646:	2f 2e       	mov	r2, r31
    1648:	ff ef       	ldi	r31, 0xFF	; 255
    164a:	3f 2e       	mov	r3, r31
    164c:	f0 2d       	mov	r31, r0
    164e:	28 22       	and	r2, r24
    1650:	39 22       	and	r3, r25

  // Packet read loop
  uint16_t uwReadSize = 0;
  uint8_t *ptr = pb_buf;
    1652:	e0 90 48 01 	lds	r14, 0x0148
    1656:	f0 90 49 01 	lds	r15, 0x0149
  uint8_t ubPOutWait = 1;
  while(uwSize--) {
    165a:	21 14       	cp	r2, r1
    165c:	31 04       	cpc	r3, r1
    165e:	41 f1       	breq	.+80     	; 0x16b0 <pb_proto_handle+0x26a>
    1660:	01 e0       	ldi	r16, 0x01	; 1
    1662:	cc 24       	eor	r12, r12
    1664:	dd 24       	eor	r13, r13
    ubStatus = wait_req(ubPOutWait, PBPROTO_STAGE_DATA);
    if(ubStatus != PBPROTO_STATUS_OK)
      break;
    *(ptr++) = PAR_DATA_PIN;
    PAR_STATUS_PORT ^= BUSY;
    1666:	0f 2e       	mov	r0, r31
    1668:	f8 e2       	ldi	r31, 0x28	; 40
    166a:	4f 2e       	mov	r4, r31
    166c:	55 24       	eor	r5, r5
    166e:	f0 2d       	mov	r31, r0
    1670:	14 e0       	ldi	r17, 0x04	; 4
  // Packet read loop
  uint16_t uwReadSize = 0;
  uint8_t *ptr = pb_buf;
  uint8_t ubPOutWait = 1;
  while(uwSize--) {
    ubStatus = wait_req(ubPOutWait, PBPROTO_STAGE_DATA);
    1672:	80 2f       	mov	r24, r16
    1674:	60 e4       	ldi	r22, 0x40	; 64
    1676:	0e 94 f8 09 	call	0x13f0	; 0x13f0 <wait_req>
    167a:	b8 2e       	mov	r11, r24
    if(ubStatus != PBPROTO_STATUS_OK)
    167c:	81 e0       	ldi	r24, 0x01	; 1
    167e:	b8 16       	cp	r11, r24
    1680:	09 f0       	breq	.+2      	; 0x1684 <pb_proto_handle+0x23e>
    1682:	4c c1       	rjmp	.+664    	; 0x191c <pb_proto_handle+0x4d6>
      break;
    *(ptr++) = PAR_DATA_PIN;
    1684:	a9 e2       	ldi	r26, 0x29	; 41
    1686:	b0 e0       	ldi	r27, 0x00	; 0
    1688:	8c 91       	ld	r24, X
    168a:	f7 01       	movw	r30, r14
    168c:	80 83       	st	Z, r24
    PAR_STATUS_PORT ^= BUSY;
    168e:	d2 01       	movw	r26, r4
    1690:	8c 91       	ld	r24, X
    1692:	81 27       	eor	r24, r17
    1694:	8c 93       	st	X, r24
    ubPOutWait ^= 1;
    uwReadSize++;
    1696:	08 94       	sec
    1698:	c1 1c       	adc	r12, r1
    169a:	d1 1c       	adc	r13, r1

  // Packet read loop
  uint16_t uwReadSize = 0;
  uint8_t *ptr = pb_buf;
  uint8_t ubPOutWait = 1;
  while(uwSize--) {
    169c:	2c 14       	cp	r2, r12
    169e:	3d 04       	cpc	r3, r13
    16a0:	09 f4       	brne	.+2      	; 0x16a4 <pb_proto_handle+0x25e>
    16a2:	3c c1       	rjmp	.+632    	; 0x191c <pb_proto_handle+0x4d6>
    ubStatus = wait_req(ubPOutWait, PBPROTO_STAGE_DATA);
    if(ubStatus != PBPROTO_STATUS_OK)
      break;
    *(ptr++) = PAR_DATA_PIN;
    16a4:	08 94       	sec
    16a6:	e1 1c       	adc	r14, r1
    16a8:	f1 1c       	adc	r15, r1
    PAR_STATUS_PORT ^= BUSY;
    ubPOutWait ^= 1;
    16aa:	b1 e0       	ldi	r27, 0x01	; 1
    16ac:	0b 27       	eor	r16, r27
    16ae:	e1 cf       	rjmp	.-62     	; 0x1672 <pb_proto_handle+0x22c>
    16b0:	cc 24       	eor	r12, r12
    16b2:	dd 24       	eor	r13, r13
    16b4:	33 c1       	rjmp	.+614    	; 0x191c <pb_proto_handle+0x4d6>
    16b6:	cc 24       	eor	r12, r12
    16b8:	dd 24       	eor	r13, r13
    16ba:	30 c1       	rjmp	.+608    	; 0x191c <pb_proto_handle+0x4d6>
      break;
    case PBPROTO_CMD_SEND:
      result = cmd_send(&ret_size);
      break;
    case PBPROTO_CMD_RECV_BURST:
      result = cmd_recv_burst(pkt_size, &ret_size);
    16bc:	e9 80       	ldd	r14, Y+1	; 0x01
    16be:	fa 80       	ldd	r15, Y+2	; 0x02
 */
static uint8_t cmd_recv_burst(uint16_t size, uint16_t *ret_size) {
  uint8_t status;

  // --- set packet size hi
  status = wait_req(1, PBPROTO_STAGE_SIZE_HI);
    16c0:	81 e0       	ldi	r24, 0x01	; 1
    16c2:	60 e2       	ldi	r22, 0x20	; 32
    16c4:	0e 94 f8 09 	call	0x13f0	; 0x13f0 <wait_req>
    16c8:	b8 2e       	mov	r11, r24
  if(status != PBPROTO_STATUS_OK)
    16ca:	e1 e0       	ldi	r30, 0x01	; 1
    16cc:	8e 17       	cp	r24, r30
    16ce:	09 f0       	breq	.+2      	; 0x16d2 <pb_proto_handle+0x28c>
    16d0:	8d c0       	rjmp	.+282    	; 0x17ec <pb_proto_handle+0x3a6>
    return status;

	PAR_DATA_DDR = 0xFF;
    16d2:	8f ef       	ldi	r24, 0xFF	; 255
    16d4:	8a b9       	out	0x0a, r24	; 10
	PAR_DATA_PORT = size >> 8;
    16d6:	fb b8       	out	0x0b, r15	; 11
	PAR_STATUS_PORT &= ~BUSY;
    16d8:	e8 e2       	ldi	r30, 0x28	; 40
    16da:	f0 e0       	ldi	r31, 0x00	; 0
    16dc:	80 81       	ld	r24, Z
    16de:	8b 7f       	andi	r24, 0xFB	; 251
    16e0:	80 83       	st	Z, r24

  // --- set packet size lo ---
  status = wait_req(0, PBPROTO_STAGE_SIZE_LO);
    16e2:	80 e0       	ldi	r24, 0x00	; 0
    16e4:	60 e3       	ldi	r22, 0x30	; 48
    16e6:	0e 94 f8 09 	call	0x13f0	; 0x13f0 <wait_req>
    16ea:	b8 2e       	mov	r11, r24
  if(status != PBPROTO_STATUS_OK)
    16ec:	f1 e0       	ldi	r31, 0x01	; 1
    16ee:	8f 17       	cp	r24, r31
    16f0:	09 f0       	breq	.+2      	; 0x16f4 <pb_proto_handle+0x2ae>
    16f2:	7c c0       	rjmp	.+248    	; 0x17ec <pb_proto_handle+0x3a6>
    return status;

	PAR_DATA_PORT = size & 0xFF;
    16f4:	eb b8       	out	0x0b, r14	; 11
	PAR_STATUS_PORT ^= BUSY;
    16f6:	e8 e2       	ldi	r30, 0x28	; 40
    16f8:	f0 e0       	ldi	r31, 0x00	; 0
    16fa:	80 81       	ld	r24, Z
    16fc:	94 e0       	ldi	r25, 0x04	; 4
    16fe:	89 27       	eor	r24, r25
    1700:	80 83       	st	Z, r24

  // --- burst ready? ---
  status = wait_req(1, PBPROTO_STAGE_DATA);
    1702:	81 e0       	ldi	r24, 0x01	; 1
    1704:	60 e4       	ldi	r22, 0x40	; 64
    1706:	0e 94 f8 09 	call	0x13f0	; 0x13f0 <wait_req>
    170a:	b8 2e       	mov	r11, r24
  if(status != PBPROTO_STATUS_OK)
    170c:	81 e0       	ldi	r24, 0x01	; 1
    170e:	b8 16       	cp	r11, r24
    1710:	09 f0       	breq	.+2      	; 0x1714 <pb_proto_handle+0x2ce>
    1712:	6c c0       	rjmp	.+216    	; 0x17ec <pb_proto_handle+0x3a6>
    return status;

  // round to even and convert to words
  uint16_t words = (size + 1) >> 1;
    1714:	c7 01       	movw	r24, r14
    1716:	01 96       	adiw	r24, 0x01	; 1
    1718:	9c 01       	movw	r18, r24
    171a:	36 95       	lsr	r19
    171c:	27 95       	ror	r18
  uint8_t result = PBPROTO_STATUS_OK;
  uint16_t i;
  uint8_t *ptr = pb_buf;
    171e:	00 91 48 01 	lds	r16, 0x0148
    1722:	10 91 49 01 	lds	r17, 0x0149

  // ----- burst loop -----
  // BEGIN TIME CRITICAL
  cli();
    1726:	f8 94       	cli
	PAR_STATUS_PORT ^= BUSY;
    1728:	e8 e2       	ldi	r30, 0x28	; 40
    172a:	f0 e0       	ldi	r31, 0x00	; 0
    172c:	80 81       	ld	r24, Z
    172e:	94 e0       	ldi	r25, 0x04	; 4
    1730:	89 27       	eor	r24, r25
    1732:	80 83       	st	Z, r24
  for(i=0;i<words;i++) {
    1734:	21 15       	cp	r18, r1
    1736:	31 05       	cpc	r19, r1
    1738:	81 f1       	breq	.+96     	; 0x179a <pb_proto_handle+0x354>
    173a:	60 e0       	ldi	r22, 0x00	; 0
    173c:	70 e0       	ldi	r23, 0x00	; 0
    173e:	9f e0       	ldi	r25, 0x0F	; 15
    BURST_DELAY;
    PAR_DATA_PORT = *(ptr++);
    1740:	4b e2       	ldi	r20, 0x2B	; 43
    1742:	50 e0       	ldi	r21, 0x00	; 0

    // wait REQ == 0
    while((PAR_STATUS_PIN & POUT) && (PAR_STATUS_PIN & SEL));
    1744:	e6 e2       	ldi	r30, 0x26	; 38
    1746:	f0 e0       	ldi	r31, 0x00	; 0
    1748:	89 2f       	mov	r24, r25
    174a:	8a 95       	dec	r24
    174c:	f1 f7       	brne	.-4      	; 0x174a <pb_proto_handle+0x304>
  // BEGIN TIME CRITICAL
  cli();
	PAR_STATUS_PORT ^= BUSY;
  for(i=0;i<words;i++) {
    BURST_DELAY;
    PAR_DATA_PORT = *(ptr++);
    174e:	d8 01       	movw	r26, r16
    1750:	8c 91       	ld	r24, X
    1752:	da 01       	movw	r26, r20
    1754:	8c 93       	st	X, r24

    // wait REQ == 0
    while((PAR_STATUS_PIN & POUT) && (PAR_STATUS_PIN & SEL));
    1756:	80 81       	ld	r24, Z
    1758:	83 ff       	sbrs	r24, 3
    175a:	03 c0       	rjmp	.+6      	; 0x1762 <pb_proto_handle+0x31c>
    175c:	80 81       	ld	r24, Z
    175e:	84 fd       	sbrc	r24, 4
    1760:	fa cf       	rjmp	.-12     	; 0x1756 <pb_proto_handle+0x310>
		if(!(PAR_STATUS_PIN & SEL))
    1762:	80 81       	ld	r24, Z
    1764:	84 ff       	sbrs	r24, 4
    1766:	1b c0       	rjmp	.+54     	; 0x179e <pb_proto_handle+0x358>
    1768:	89 2f       	mov	r24, r25
    176a:	8a 95       	dec	r24
    176c:	f1 f7       	brne	.-4      	; 0x176a <pb_proto_handle+0x324>
			break;

    BURST_DELAY;
    PAR_DATA_PORT = *(ptr++);
    176e:	d8 01       	movw	r26, r16
    1770:	11 96       	adiw	r26, 0x01	; 1
    1772:	8c 91       	ld	r24, X
    1774:	da 01       	movw	r26, r20
    1776:	8c 93       	st	X, r24

    // wait REQ == 1
    while(!(PAR_STATUS_PIN & POUT) && (PAR_STATUS_PIN & SEL));
    1778:	80 81       	ld	r24, Z
    177a:	83 fd       	sbrc	r24, 3
    177c:	03 c0       	rjmp	.+6      	; 0x1784 <pb_proto_handle+0x33e>
    177e:	80 81       	ld	r24, Z
    1780:	84 fd       	sbrc	r24, 4
    1782:	fa cf       	rjmp	.-12     	; 0x1778 <pb_proto_handle+0x332>
		if(!(PAR_STATUS_PIN & SEL))
    1784:	80 81       	ld	r24, Z
    1786:	84 ff       	sbrs	r24, 4
    1788:	0a c0       	rjmp	.+20     	; 0x179e <pb_proto_handle+0x358>

  // ----- burst loop -----
  // BEGIN TIME CRITICAL
  cli();
	PAR_STATUS_PORT ^= BUSY;
  for(i=0;i<words;i++) {
    178a:	6f 5f       	subi	r22, 0xFF	; 255
    178c:	7f 4f       	sbci	r23, 0xFF	; 255
    178e:	62 17       	cp	r22, r18
    1790:	73 07       	cpc	r23, r19
    1792:	28 f4       	brcc	.+10     	; 0x179e <pb_proto_handle+0x358>
 * - prepares response for recv
 * - does normal/burst comm with Amiga
 * - waits for SEL=0, then sets BUSY=0
 * - processes packet sent by Amiga
 */
uint8_t pb_proto_handle(void) {
    1794:	0e 5f       	subi	r16, 0xFE	; 254
    1796:	1f 4f       	sbci	r17, 0xFF	; 255
    1798:	d7 cf       	rjmp	.-82     	; 0x1748 <pb_proto_handle+0x302>
    179a:	60 e0       	ldi	r22, 0x00	; 0
    179c:	70 e0       	ldi	r23, 0x00	; 0
  sei();
  // END TIME CRITICAL

	// TODO(KaiN#9): WTF with label/goto
  // final wait REQ == 0
  while(PAR_STATUS_PIN & POUT)
    179e:	e6 e2       	ldi	r30, 0x26	; 38
    17a0:	f0 e0       	ldi	r31, 0x00	; 0
    if(!(PAR_STATUS_PIN & SEL))
			goto recv_burst_exit;

	PAR_STATUS_PORT |= BUSY;
    17a2:	a8 e2       	ldi	r26, 0x28	; 40
    17a4:	b0 e0       	ldi	r27, 0x00	; 0
    while(!(PAR_STATUS_PIN & POUT) && (PAR_STATUS_PIN & SEL));
		if(!(PAR_STATUS_PIN & SEL))
			break;
  }
  recv_burst_exit:
  sei();
    17a6:	78 94       	sei
    17a8:	03 c0       	rjmp	.+6      	; 0x17b0 <pb_proto_handle+0x36a>
  // END TIME CRITICAL

	// TODO(KaiN#9): WTF with label/goto
  // final wait REQ == 0
  while(PAR_STATUS_PIN & POUT)
    if(!(PAR_STATUS_PIN & SEL))
    17aa:	80 81       	ld	r24, Z
    17ac:	84 ff       	sbrs	r24, 4
    17ae:	fb cf       	rjmp	.-10     	; 0x17a6 <pb_proto_handle+0x360>
  sei();
  // END TIME CRITICAL

	// TODO(KaiN#9): WTF with label/goto
  // final wait REQ == 0
  while(PAR_STATUS_PIN & POUT)
    17b0:	80 81       	ld	r24, Z
    17b2:	83 fd       	sbrc	r24, 3
    17b4:	fa cf       	rjmp	.-12     	; 0x17aa <pb_proto_handle+0x364>
    if(!(PAR_STATUS_PIN & SEL))
			goto recv_burst_exit;

	PAR_STATUS_PORT |= BUSY;
    17b6:	8c 91       	ld	r24, X
    17b8:	84 60       	ori	r24, 0x04	; 4
    17ba:	8c 93       	st	X, r24
    17bc:	03 c0       	rjmp	.+6      	; 0x17c4 <pb_proto_handle+0x37e>

  // final wait REQ == 1
  while(!(PAR_STATUS_PIN & POUT))
    if(!(PAR_STATUS_PIN & SEL))
    17be:	80 81       	ld	r24, Z
    17c0:	84 ff       	sbrs	r24, 4
    17c2:	f1 cf       	rjmp	.-30     	; 0x17a6 <pb_proto_handle+0x360>
			goto recv_burst_exit;

	PAR_STATUS_PORT |= BUSY;

  // final wait REQ == 1
  while(!(PAR_STATUS_PIN & POUT))
    17c4:	80 81       	ld	r24, Z
    17c6:	83 ff       	sbrs	r24, 3
    17c8:	fa cf       	rjmp	.-12     	; 0x17be <pb_proto_handle+0x378>
    if(!(PAR_STATUS_PIN & SEL))
			goto recv_burst_exit;

  // error?
  if(i<words)
    17ca:	62 17       	cp	r22, r18
    17cc:	73 07       	cpc	r23, r19
    17ce:	20 f4       	brcc	.+8      	; 0x17d8 <pb_proto_handle+0x392>
    17d0:	0f 2e       	mov	r0, r31
    17d2:	f2 e4       	ldi	r31, 0x42	; 66
    17d4:	bf 2e       	mov	r11, r31
    17d6:	f0 2d       	mov	r31, r0
    result = PBPROTO_STATUS_TIMEOUT | PBPROTO_STAGE_DATA;

  // final ACK
	PAR_STATUS_PORT &= ~BUSY;
    17d8:	e8 e2       	ldi	r30, 0x28	; 40
    17da:	f0 e0       	ldi	r31, 0x00	; 0
    17dc:	80 81       	ld	r24, Z
    17de:	8b 7f       	andi	r24, 0xFB	; 251
    17e0:	80 83       	st	Z, r24

  // [IN]
  PAR_DATA_DDR = 0x00;
    17e2:	1a b8       	out	0x0a, r1	; 10

  *ret_size = i << 1;
    17e4:	6b 01       	movw	r12, r22
    17e6:	cc 0c       	add	r12, r12
    17e8:	dd 1c       	adc	r13, r13
    17ea:	98 c0       	rjmp	.+304    	; 0x191c <pb_proto_handle+0x4d6>
    17ec:	cc 24       	eor	r12, r12
    17ee:	dd 24       	eor	r13, r13
    17f0:	95 c0       	rjmp	.+298    	; 0x191c <pb_proto_handle+0x4d6>
{
  uint16_t uwSize;
  uint8_t ubStatus;

  // --- packet size hi ---
  ubStatus = wait_req(1, PBPROTO_STAGE_SIZE_HI);
    17f2:	81 e0       	ldi	r24, 0x01	; 1
    17f4:	60 e2       	ldi	r22, 0x20	; 32
    17f6:	0e 94 f8 09 	call	0x13f0	; 0x13f0 <wait_req>
    17fa:	b8 2e       	mov	r11, r24
  if(ubStatus != PBPROTO_STATUS_OK)
    17fc:	b1 e0       	ldi	r27, 0x01	; 1
    17fe:	8b 17       	cp	r24, r27
    1800:	09 f0       	breq	.+2      	; 0x1804 <pb_proto_handle+0x3be>
    1802:	8a c0       	rjmp	.+276    	; 0x1918 <pb_proto_handle+0x4d2>
    return ubStatus;

  uwSize = PAR_DATA_PIN << 8;
    1804:	09 b1       	in	r16, 0x09	; 9
  PAR_STATUS_PORT &= ~BUSY;
    1806:	e8 e2       	ldi	r30, 0x28	; 40
    1808:	f0 e0       	ldi	r31, 0x00	; 0
    180a:	80 81       	ld	r24, Z
    180c:	8b 7f       	andi	r24, 0xFB	; 251
    180e:	80 83       	st	Z, r24

  // --- packet size lo ---
  ubStatus = wait_req(0, PBPROTO_STAGE_SIZE_LO);
    1810:	80 e0       	ldi	r24, 0x00	; 0
    1812:	60 e3       	ldi	r22, 0x30	; 48
    1814:	0e 94 f8 09 	call	0x13f0	; 0x13f0 <wait_req>
    1818:	b8 2e       	mov	r11, r24
  if(ubStatus != PBPROTO_STATUS_OK)
    181a:	e1 e0       	ldi	r30, 0x01	; 1
    181c:	8e 17       	cp	r24, r30
    181e:	09 f0       	breq	.+2      	; 0x1822 <pb_proto_handle+0x3dc>
    1820:	7b c0       	rjmp	.+246    	; 0x1918 <pb_proto_handle+0x4d2>
    return ubStatus;

  uwSize |= PAR_DATA_PIN;
    1822:	89 b1       	in	r24, 0x09	; 9
  // --- packet size hi ---
  ubStatus = wait_req(1, PBPROTO_STAGE_SIZE_HI);
  if(ubStatus != PBPROTO_STATUS_OK)
    return ubStatus;

  uwSize = PAR_DATA_PIN << 8;
    1824:	30 2f       	mov	r19, r16
    1826:	20 e0       	ldi	r18, 0x00	; 0
  // --- packet size lo ---
  ubStatus = wait_req(0, PBPROTO_STAGE_SIZE_LO);
  if(ubStatus != PBPROTO_STATUS_OK)
    return ubStatus;

  uwSize |= PAR_DATA_PIN;
    1828:	90 e0       	ldi	r25, 0x00	; 0
    182a:	28 2b       	or	r18, r24
    182c:	39 2b       	or	r19, r25
  // delay SET_RAK until burst begin...

  // check size
  if(uwSize > pb_buf_size)
    182e:	80 91 4a 01 	lds	r24, 0x014A
    1832:	90 91 4b 01 	lds	r25, 0x014B
    1836:	82 17       	cp	r24, r18
    1838:	93 07       	cpc	r25, r19
    183a:	38 f4       	brcc	.+14     	; 0x184a <pb_proto_handle+0x404>
    183c:	0f 2e       	mov	r0, r31
    183e:	f5 e0       	ldi	r31, 0x05	; 5
    1840:	bf 2e       	mov	r11, r31
    1842:	f0 2d       	mov	r31, r0
    1844:	cc 24       	eor	r12, r12
    1846:	dd 24       	eor	r13, r13
    1848:	69 c0       	rjmp	.+210    	; 0x191c <pb_proto_handle+0x4d6>
    return PBPROTO_STATUS_PACKET_TOO_LARGE;

  // round to even and convert to words
  uint16_t words = (uwSize +1) >> 1;
    184a:	c9 01       	movw	r24, r18
    184c:	01 96       	adiw	r24, 0x01	; 1
    184e:	9c 01       	movw	r18, r24
    1850:	36 95       	lsr	r19
    1852:	27 95       	ror	r18
  uint16_t i;
  uint8_t result = PBPROTO_STATUS_OK;
  uint8_t *ptr = pb_buf;
    1854:	00 91 48 01 	lds	r16, 0x0148
    1858:	10 91 49 01 	lds	r17, 0x0149

  // ----- burst loop -----
  // BEGIN TIME CRITICAL
  cli();
    185c:	f8 94       	cli
  PAR_STATUS_PORT ^= BUSY; // trigger start of burst
    185e:	e8 e2       	ldi	r30, 0x28	; 40
    1860:	f0 e0       	ldi	r31, 0x00	; 0
    1862:	80 81       	ld	r24, Z
    1864:	94 e0       	ldi	r25, 0x04	; 4
    1866:	89 27       	eor	r24, r25
    1868:	80 83       	st	Z, r24
  for(i=0;i<words;i++) {
    186a:	21 15       	cp	r18, r1
    186c:	31 05       	cpc	r19, r1
    186e:	29 f4       	brne	.+10     	; 0x187a <pb_proto_handle+0x434>
    1870:	2e c0       	rjmp	.+92     	; 0x18ce <pb_proto_handle+0x488>
    // wait REQ == 1
    while(!(PAR_STATUS_PIN & POUT) && (PAR_STATUS_PIN & SEL))
		if(!(PAR_STATUS_PIN & SEL))
    1872:	80 81       	ld	r24, Z
    1874:	84 fd       	sbrc	r24, 4
    1876:	0a c0       	rjmp	.+20     	; 0x188c <pb_proto_handle+0x446>
    1878:	0f c0       	rjmp	.+30     	; 0x1898 <pb_proto_handle+0x452>
    187a:	40 e0       	ldi	r20, 0x00	; 0
    187c:	50 e0       	ldi	r21, 0x00	; 0
  // BEGIN TIME CRITICAL
  cli();
  PAR_STATUS_PORT ^= BUSY; // trigger start of burst
  for(i=0;i<words;i++) {
    // wait REQ == 1
    while(!(PAR_STATUS_PIN & POUT) && (PAR_STATUS_PIN & SEL))
    187e:	e6 e2       	ldi	r30, 0x26	; 38
    1880:	f0 e0       	ldi	r31, 0x00	; 0
		if(!(PAR_STATUS_PIN & SEL))
			break;
    *(ptr++) = PAR_DATA_PIN;
    1882:	0f 2e       	mov	r0, r31
    1884:	f9 e2       	ldi	r31, 0x29	; 41
    1886:	ef 2e       	mov	r14, r31
    1888:	ff 24       	eor	r15, r15
    188a:	f0 2d       	mov	r31, r0
  // BEGIN TIME CRITICAL
  cli();
  PAR_STATUS_PORT ^= BUSY; // trigger start of burst
  for(i=0;i<words;i++) {
    // wait REQ == 1
    while(!(PAR_STATUS_PIN & POUT) && (PAR_STATUS_PIN & SEL))
    188c:	80 81       	ld	r24, Z
    188e:	83 fd       	sbrc	r24, 3
    1890:	03 c0       	rjmp	.+6      	; 0x1898 <pb_proto_handle+0x452>
    1892:	80 81       	ld	r24, Z
    1894:	84 fd       	sbrc	r24, 4
    1896:	ed cf       	rjmp	.-38     	; 0x1872 <pb_proto_handle+0x42c>
		if(!(PAR_STATUS_PIN & SEL))
			break;
    *(ptr++) = PAR_DATA_PIN;
    1898:	d7 01       	movw	r26, r14
    189a:	8c 91       	ld	r24, X
    189c:	d8 01       	movw	r26, r16
    189e:	8c 93       	st	X, r24
    18a0:	03 c0       	rjmp	.+6      	; 0x18a8 <pb_proto_handle+0x462>

    // wait REQ == 0
    while((PAR_STATUS_PIN & POUT) && (PAR_STATUS_PIN & SEL))
		if(!(PAR_STATUS_PIN & SEL))
    18a2:	80 81       	ld	r24, Z
    18a4:	84 ff       	sbrs	r24, 4
    18a6:	06 c0       	rjmp	.+12     	; 0x18b4 <pb_proto_handle+0x46e>
		if(!(PAR_STATUS_PIN & SEL))
			break;
    *(ptr++) = PAR_DATA_PIN;

    // wait REQ == 0
    while((PAR_STATUS_PIN & POUT) && (PAR_STATUS_PIN & SEL))
    18a8:	80 81       	ld	r24, Z
    18aa:	83 ff       	sbrs	r24, 3
    18ac:	03 c0       	rjmp	.+6      	; 0x18b4 <pb_proto_handle+0x46e>
    18ae:	80 81       	ld	r24, Z
    18b0:	84 fd       	sbrc	r24, 4
    18b2:	f7 cf       	rjmp	.-18     	; 0x18a2 <pb_proto_handle+0x45c>
		if(!(PAR_STATUS_PIN & SEL))
			break;
    *(ptr++) = PAR_DATA_PIN;
    18b4:	d7 01       	movw	r26, r14
    18b6:	8c 91       	ld	r24, X
    18b8:	d8 01       	movw	r26, r16
    18ba:	11 96       	adiw	r26, 0x01	; 1
    18bc:	8c 93       	st	X, r24

  // ----- burst loop -----
  // BEGIN TIME CRITICAL
  cli();
  PAR_STATUS_PORT ^= BUSY; // trigger start of burst
  for(i=0;i<words;i++) {
    18be:	4f 5f       	subi	r20, 0xFF	; 255
    18c0:	5f 4f       	sbci	r21, 0xFF	; 255
    18c2:	42 17       	cp	r20, r18
    18c4:	53 07       	cpc	r21, r19
    18c6:	18 f4       	brcc	.+6      	; 0x18ce <pb_proto_handle+0x488>
 * - prepares response for recv
 * - does normal/burst comm with Amiga
 * - waits for SEL=0, then sets BUSY=0
 * - processes packet sent by Amiga
 */
uint8_t pb_proto_handle(void) {
    18c8:	0e 5f       	subi	r16, 0xFE	; 254
    18ca:	1f 4f       	sbci	r17, 0xFF	; 255
    18cc:	df cf       	rjmp	.-66     	; 0x188c <pb_proto_handle+0x446>
    while((PAR_STATUS_PIN & POUT) && (PAR_STATUS_PIN & SEL))
		if(!(PAR_STATUS_PIN & SEL))
			break;
    *(ptr++) = PAR_DATA_PIN;
  }
  sei();
    18ce:	78 94       	sei
  // END TIME CRITICAL

  do {
		// Wait for POUT == 1
		while(!(PAR_STATUS_PIN & POUT) && (PAR_STATUS_PIN & SEL));
    18d0:	e6 e2       	ldi	r30, 0x26	; 38
    18d2:	f0 e0       	ldi	r31, 0x00	; 0
		if(!(PAR_STATUS_PIN & SEL))
			continue;

		PAR_STATUS_PORT ^= BUSY;
    18d4:	a8 e2       	ldi	r26, 0x28	; 40
    18d6:	b0 e0       	ldi	r27, 0x00	; 0
    18d8:	94 e0       	ldi	r25, 0x04	; 4
  sei();
  // END TIME CRITICAL

  do {
		// Wait for POUT == 1
		while(!(PAR_STATUS_PIN & POUT) && (PAR_STATUS_PIN & SEL));
    18da:	80 81       	ld	r24, Z
    18dc:	83 fd       	sbrc	r24, 3
    18de:	03 c0       	rjmp	.+6      	; 0x18e6 <pb_proto_handle+0x4a0>
    18e0:	80 81       	ld	r24, Z
    18e2:	84 fd       	sbrc	r24, 4
    18e4:	fa cf       	rjmp	.-12     	; 0x18da <pb_proto_handle+0x494>
		if(!(PAR_STATUS_PIN & SEL))
    18e6:	80 81       	ld	r24, Z
    18e8:	84 ff       	sbrs	r24, 4
    18ea:	09 c0       	rjmp	.+18     	; 0x18fe <pb_proto_handle+0x4b8>
			continue;

		PAR_STATUS_PORT ^= BUSY;
    18ec:	8c 91       	ld	r24, X
    18ee:	89 27       	eor	r24, r25
    18f0:	8c 93       	st	X, r24
		// Wait for POUT == 0
		while((PAR_STATUS_PIN & POUT) && (PAR_STATUS_PIN & SEL));
    18f2:	80 81       	ld	r24, Z
    18f4:	83 ff       	sbrs	r24, 3
    18f6:	03 c0       	rjmp	.+6      	; 0x18fe <pb_proto_handle+0x4b8>
    18f8:	80 81       	ld	r24, Z
    18fa:	84 fd       	sbrc	r24, 4
    18fc:	fa cf       	rjmp	.-12     	; 0x18f2 <pb_proto_handle+0x4ac>
  } while(!(PAR_STATUS_PIN & SEL));
    18fe:	80 81       	ld	r24, Z
    1900:	84 ff       	sbrs	r24, 4
    1902:	eb cf       	rjmp	.-42     	; 0x18da <pb_proto_handle+0x494>
  // error?
  if(i<words)
    result = PBPROTO_STATUS_TIMEOUT | PBPROTO_STAGE_DATA;

  // final ACK
	PAR_STATUS_PORT ^= BUSY;
    1904:	e8 e2       	ldi	r30, 0x28	; 40
    1906:	f0 e0       	ldi	r31, 0x00	; 0
    1908:	80 81       	ld	r24, Z
    190a:	94 e0       	ldi	r25, 0x04	; 4
    190c:	89 27       	eor	r24, r25
    190e:	80 83       	st	Z, r24

  *ret_size = i << 1;
    1910:	69 01       	movw	r12, r18
    1912:	cc 0c       	add	r12, r12
    1914:	dd 1c       	adc	r13, r13
    1916:	02 c0       	rjmp	.+4      	; 0x191c <pb_proto_handle+0x4d6>
    1918:	cc 24       	eor	r12, r12
    191a:	dd 24       	eor	r13, r13
  }
  return PBPROTO_STATUS_TIMEOUT | ubStateFlag;
}

static uint8_t wait_sel(uint8_t select_state, uint8_t state_flag) {
  timer_100us = 0;
    191c:	10 92 62 01 	sts	0x0162, r1
    1920:	10 92 61 01 	sts	0x0161, r1
  while(timer_100us < pb_proto_timeout) {
    1924:	20 91 3a 01 	lds	r18, 0x013A
    1928:	30 91 3b 01 	lds	r19, 0x013B
    if(((PAR_STATUS_PIN & SEL) >> SEL_PIN) == select_state)
    192c:	e6 e2       	ldi	r30, 0x26	; 38
    192e:	f0 e0       	ldi	r31, 0x00	; 0
    1930:	03 c0       	rjmp	.+6      	; 0x1938 <pb_proto_handle+0x4f2>
    1932:	80 81       	ld	r24, Z
    1934:	84 ff       	sbrs	r24, 4
    1936:	07 c0       	rjmp	.+14     	; 0x1946 <pb_proto_handle+0x500>
  return PBPROTO_STATUS_TIMEOUT | ubStateFlag;
}

static uint8_t wait_sel(uint8_t select_state, uint8_t state_flag) {
  timer_100us = 0;
  while(timer_100us < pb_proto_timeout) {
    1938:	80 91 61 01 	lds	r24, 0x0161
    193c:	90 91 62 01 	lds	r25, 0x0162
    1940:	82 17       	cp	r24, r18
    1942:	93 07       	cpc	r25, r19
    1944:	b0 f3       	brcs	.-20     	; 0x1932 <pb_proto_handle+0x4ec>

  // wait for SEL == 0
  wait_sel(0, PBPROTO_STAGE_END_SELECT);

  // reset RAK = 0
  PAR_STATUS_PORT &= ~BUSY;
    1946:	e8 e2       	ldi	r30, 0x28	; 40
    1948:	f0 e0       	ldi	r31, 0x00	; 0
    194a:	80 81       	ld	r24, Z
    194c:	8b 7f       	andi	r24, 0xFB	; 251
    194e:	80 83       	st	Z, r24
    1950:	e0 90 84 00 	lds	r14, 0x0084
    1954:	f0 90 85 00 	lds	r15, 0x0085
  // read timer
  uint16_t delta = timer_hw_get();

  // process buffer for send command
  /// Amiga sent data - process it
  if(result == PBPROTO_STATUS_OK) {
    1958:	b1 e0       	ldi	r27, 0x01	; 1
    195a:	bb 16       	cp	r11, r27
    195c:	91 f4       	brne	.+36     	; 0x1982 <pb_proto_handle+0x53c>
    if((cmd == PBPROTO_CMD_SEND) || (cmd == PBPROTO_CMD_SEND_BURST)) {
    195e:	e1 e1       	ldi	r30, 0x11	; 17
    1960:	ae 16       	cp	r10, r30
    1962:	21 f0       	breq	.+8      	; 0x196c <pb_proto_handle+0x526>
    1964:	f3 e3       	ldi	r31, 0x33	; 51
    1966:	af 16       	cp	r10, r31
    1968:	09 f0       	breq	.+2      	; 0x196c <pb_proto_handle+0x526>
    196a:	65 c0       	rjmp	.+202    	; 0x1a36 <pb_proto_handle+0x5f0>
      result = proc_func(pb_buf, ret_size);
    196c:	e0 91 46 01 	lds	r30, 0x0146
    1970:	f0 91 47 01 	lds	r31, 0x0147
    1974:	80 91 48 01 	lds	r24, 0x0148
    1978:	90 91 49 01 	lds	r25, 0x0149
    197c:	b6 01       	movw	r22, r12
    197e:	09 95       	icall
    1980:	b8 2e       	mov	r11, r24
    }
  }

  // fill in stats
  ps->cmd = cmd;
    1982:	06 e7       	ldi	r16, 0x76	; 118
    1984:	11 e0       	ldi	r17, 0x01	; 1
    1986:	f8 01       	movw	r30, r16
    1988:	a1 92       	st	Z+, r10
  ps->status = result;
    198a:	b0 82       	st	Z, r11
  ps->size = ret_size;
    198c:	d8 01       	movw	r26, r16
    198e:	15 96       	adiw	r26, 0x05	; 5
    1990:	dc 92       	st	X, r13
    1992:	ce 92       	st	-X, r12
    1994:	14 97       	sbiw	r26, 0x04	; 4
  ps->delta = delta;
    1996:	17 96       	adiw	r26, 0x07	; 7
    1998:	fc 92       	st	X, r15
    199a:	ee 92       	st	-X, r14
    199c:	16 97       	sbiw	r26, 0x06	; 6
  ps->rate = timer_hw_calc_rate_kbs(ret_size, delta);
    199e:	c6 01       	movw	r24, r12
    19a0:	b7 01       	movw	r22, r14
    19a2:	0e 94 94 02 	call	0x528	; 0x528 <timer_hw_calc_rate_kbs>
    19a6:	f8 01       	movw	r30, r16
    19a8:	91 87       	std	Z+9, r25	; 0x09
    19aa:	80 87       	std	Z+8, r24	; 0x08
  ps->ts = ts;
    19ac:	d8 01       	movw	r26, r16
    19ae:	1c 96       	adiw	r26, 0x0c	; 12
    19b0:	6d 92       	st	X+, r6
    19b2:	7d 92       	st	X+, r7
    19b4:	8d 92       	st	X+, r8
    19b6:	9c 92       	st	X, r9
    19b8:	1f 97       	sbiw	r26, 0x0f	; 15
  ps->is_send = (cmd == PBPROTO_CMD_SEND) || (cmd == PBPROTO_CMD_SEND_BURST);
    19ba:	b1 e1       	ldi	r27, 0x11	; 17
    19bc:	ab 16       	cp	r10, r27
    19be:	31 f0       	breq	.+12     	; 0x19cc <pb_proto_handle+0x586>
    19c0:	e3 e3       	ldi	r30, 0x33	; 51
    19c2:	ae 16       	cp	r10, r30
    19c4:	19 f0       	breq	.+6      	; 0x19cc <pb_proto_handle+0x586>
    19c6:	80 e0       	ldi	r24, 0x00	; 0
    19c8:	90 e0       	ldi	r25, 0x00	; 0
    19ca:	02 c0       	rjmp	.+4      	; 0x19d0 <pb_proto_handle+0x58a>
    19cc:	81 e0       	ldi	r24, 0x01	; 1
    19ce:	90 e0       	ldi	r25, 0x00	; 0
    19d0:	e8 e7       	ldi	r30, 0x78	; 120
    19d2:	f1 e0       	ldi	r31, 0x01	; 1
    19d4:	81 93       	st	Z+, r24
  ps->stats_id = ps->is_send ? STATS_ID_PB_TX : STATS_ID_PB_RX;
    19d6:	10 82       	st	Z, r1
    19d8:	88 23       	and	r24, r24
    19da:	11 f0       	breq	.+4      	; 0x19e0 <pb_proto_handle+0x59a>
    19dc:	81 e0       	ldi	r24, 0x01	; 1
    19de:	80 83       	st	Z, r24
  ps->recv_delta = ps->is_send ? 0 : (uint16_t)(ps->ts - trigger_ts);
    19e0:	80 91 78 01 	lds	r24, 0x0178
    19e4:	88 23       	and	r24, r24
    19e6:	19 f0       	breq	.+6      	; 0x19ee <pb_proto_handle+0x5a8>
    19e8:	20 e0       	ldi	r18, 0x00	; 0
    19ea:	30 e0       	ldi	r19, 0x00	; 0
    19ec:	0a c0       	rjmp	.+20     	; 0x1a02 <pb_proto_handle+0x5bc>
    19ee:	20 91 82 01 	lds	r18, 0x0182
    19f2:	30 91 83 01 	lds	r19, 0x0183
    19f6:	80 91 4c 01 	lds	r24, 0x014C
    19fa:	90 91 4d 01 	lds	r25, 0x014D
    19fe:	28 1b       	sub	r18, r24
    1a00:	39 0b       	sbc	r19, r25
    1a02:	30 93 81 01 	sts	0x0181, r19
    1a06:	20 93 80 01 	sts	0x0180, r18
    1a0a:	8b 2d       	mov	r24, r11
  return result;
}
    1a0c:	0f 90       	pop	r0
    1a0e:	0f 90       	pop	r0
    1a10:	cf 91       	pop	r28
    1a12:	df 91       	pop	r29
    1a14:	1f 91       	pop	r17
    1a16:	0f 91       	pop	r16
    1a18:	ff 90       	pop	r15
    1a1a:	ef 90       	pop	r14
    1a1c:	df 90       	pop	r13
    1a1e:	cf 90       	pop	r12
    1a20:	bf 90       	pop	r11
    1a22:	af 90       	pop	r10
    1a24:	9f 90       	pop	r9
    1a26:	8f 90       	pop	r8
    1a28:	7f 90       	pop	r7
    1a2a:	6f 90       	pop	r6
    1a2c:	5f 90       	pop	r5
    1a2e:	4f 90       	pop	r4
    1a30:	3f 90       	pop	r3
    1a32:	2f 90       	pop	r2
    1a34:	08 95       	ret
      result = proc_func(pb_buf, ret_size);
    }
  }

  // fill in stats
  ps->cmd = cmd;
    1a36:	06 e7       	ldi	r16, 0x76	; 118
    1a38:	11 e0       	ldi	r17, 0x01	; 1
    1a3a:	f8 01       	movw	r30, r16
    1a3c:	a1 92       	st	Z+, r10
  ps->status = result;
    1a3e:	81 e0       	ldi	r24, 0x01	; 1
    1a40:	80 83       	st	Z, r24
  ps->size = ret_size;
    1a42:	d8 01       	movw	r26, r16
    1a44:	15 96       	adiw	r26, 0x05	; 5
    1a46:	dc 92       	st	X, r13
    1a48:	ce 92       	st	-X, r12
    1a4a:	14 97       	sbiw	r26, 0x04	; 4
  ps->delta = delta;
    1a4c:	17 96       	adiw	r26, 0x07	; 7
    1a4e:	fc 92       	st	X, r15
    1a50:	ee 92       	st	-X, r14
    1a52:	16 97       	sbiw	r26, 0x06	; 6
  ps->rate = timer_hw_calc_rate_kbs(ret_size, delta);
    1a54:	c6 01       	movw	r24, r12
    1a56:	b7 01       	movw	r22, r14
    1a58:	0e 94 94 02 	call	0x528	; 0x528 <timer_hw_calc_rate_kbs>
    1a5c:	f8 01       	movw	r30, r16
    1a5e:	91 87       	std	Z+9, r25	; 0x09
    1a60:	80 87       	std	Z+8, r24	; 0x08
  ps->ts = ts;
    1a62:	d8 01       	movw	r26, r16
    1a64:	1c 96       	adiw	r26, 0x0c	; 12
    1a66:	6d 92       	st	X+, r6
    1a68:	7d 92       	st	X+, r7
    1a6a:	8d 92       	st	X+, r8
    1a6c:	9c 92       	st	X, r9
    1a6e:	1f 97       	sbiw	r26, 0x0f	; 15
    1a70:	aa cf       	rjmp	.-172    	; 0x19c6 <pb_proto_handle+0x580>

00001a72 <pb_proto_request_recv>:
 * Sends data receive request (?) to Amiga.
 * Done as pulse on ACK line.
 */
void pb_proto_request_recv(void)
{
  par_low_pulse_ack(1);
    1a72:	81 e0       	ldi	r24, 0x01	; 1
    1a74:	0e 94 41 09 	call	0x1282	; 0x1282 <par_low_pulse_ack>
  // TODO(KaiN#9): Perhaps should be longer as atmega clk is faster?
  trigger_ts = time_stamp;
    1a78:	80 91 5b 01 	lds	r24, 0x015B
    1a7c:	90 91 5c 01 	lds	r25, 0x015C
    1a80:	a0 91 5d 01 	lds	r26, 0x015D
    1a84:	b0 91 5e 01 	lds	r27, 0x015E
    1a88:	80 93 4c 01 	sts	0x014C, r24
    1a8c:	90 93 4d 01 	sts	0x014D, r25
    1a90:	a0 93 4e 01 	sts	0x014E, r26
    1a94:	b0 93 4f 01 	sts	0x014F, r27
}
    1a98:	08 95       	ret

00001a9a <pb_test_send_packet>:
  return result;
}

void pb_test_send_packet(uint8_t silent)
{
  silent_mode = silent;
    1a9a:	80 93 52 01 	sts	0x0152, r24
  pb_proto_request_recv();
    1a9e:	0e 94 39 0d 	call	0x1a72	; 0x1a72 <pb_proto_request_recv>
}
    1aa2:	08 95       	ret

00001aa4 <pb_test_toggle_auto>:

void pb_test_toggle_auto(void)
{
  auto_mode = !auto_mode;
    1aa4:	90 e0       	ldi	r25, 0x00	; 0
    1aa6:	80 91 51 01 	lds	r24, 0x0151
    1aaa:	88 23       	and	r24, r24
    1aac:	09 f4       	brne	.+2      	; 0x1ab0 <pb_test_toggle_auto+0xc>
    1aae:	91 e0       	ldi	r25, 0x01	; 1
    1ab0:	90 93 51 01 	sts	0x0151, r25
		// NOTE: UART - on
  } else {
		// NOTE: UART - off
  }

  if(auto_mode) {
    1ab4:	99 23       	and	r25, r25
    1ab6:	29 f0       	breq	.+10     	; 0x1ac2 <pb_test_toggle_auto+0x1e>
    // send first packet
    pb_test_send_packet(1);
    1ab8:	81 e0       	ldi	r24, 0x01	; 1
    1aba:	0e 94 4d 0d 	call	0x1a9a	; 0x1a9a <pb_test_send_packet>
    // clear stats
    stats_reset();
    1abe:	0e 94 1f 13 	call	0x263e	; 0x263e <stats_reset>
    1ac2:	08 95       	ret

00001ac4 <pb_test_loop>:
    }
  }
}

uint8_t pb_test_loop(void)
{
    1ac4:	0f 93       	push	r16
    1ac6:	1f 93       	push	r17
    1ac8:	cf 93       	push	r28
    1aca:	df 93       	push	r29
	// NOTE: time_stamp_spc() [PB_TEST] on\r\n

  stats_reset();
    1acc:	0e 94 1f 13 	call	0x263e	; 0x263e <stats_reset>

  // setup handlers for pb testing
  pb_proto_init(fill_pkt, proc_pkt, pkt_buf, PKT_BUF_SIZE);
    1ad0:	82 ee       	ldi	r24, 0xE2	; 226
    1ad2:	9d e0       	ldi	r25, 0x0D	; 13
    1ad4:	6c ea       	ldi	r22, 0xAC	; 172
    1ad6:	7d e0       	ldi	r23, 0x0D	; 13
    1ad8:	46 e8       	ldi	r20, 0x86	; 134
    1ada:	51 e0       	ldi	r21, 0x01	; 1
    1adc:	2a ee       	ldi	r18, 0xEA	; 234
    1ade:	35 e0       	ldi	r19, 0x05	; 5
    1ae0:	0e 94 cd 09 	call	0x139a	; 0x139a <pb_proto_init>
  auto_mode = 0;
    1ae4:	10 92 51 01 	sts	0x0151, r1
  toggle_request = 0;
    1ae8:	10 92 50 01 	sts	0x0150, r1
  silent_mode = 0;
    1aec:	10 92 52 01 	sts	0x0152, r1
    if(!silent_mode) {
      dump_pb_cmd(&pb_proto_stat);
    }

    // next iteration?
    if(pb_proto_stat.is_send) {
    1af0:	c8 e7       	ldi	r28, 0x78	; 120
    1af2:	d1 e0       	ldi	r29, 0x01	; 1
  // ok!
  if(status == PBPROTO_STATUS_OK) {

    // always dump I/O
    if(!silent_mode) {
      dump_pb_cmd(&pb_proto_stat);
    1af4:	06 e7       	ldi	r16, 0x76	; 118
    1af6:	11 e0       	ldi	r17, 0x01	; 1
    1af8:	21 c0       	rjmp	.+66     	; 0x1b3c <pb_test_loop+0x78>

// ----- function table -----

static void pb_test_worker(void)
{
  uint8_t status = pb_util_handle();
    1afa:	0e 94 26 0e 	call	0x1c4c	; 0x1c4c <pb_util_handle>

  // ok!
  if(status == PBPROTO_STATUS_OK) {
    1afe:	81 30       	cpi	r24, 0x01	; 1
    1b00:	a9 f4       	brne	.+42     	; 0x1b2c <pb_test_loop+0x68>

    // always dump I/O
    if(!silent_mode) {
    1b02:	80 91 52 01 	lds	r24, 0x0152
    1b06:	88 23       	and	r24, r24
    1b08:	19 f4       	brne	.+6      	; 0x1b10 <pb_test_loop+0x4c>
      dump_pb_cmd(&pb_proto_stat);
    1b0a:	c8 01       	movw	r24, r16
    1b0c:	0e 94 ee 06 	call	0xddc	; 0xddc <dump_pb_cmd>
    }

    // next iteration?
    if(pb_proto_stat.is_send) {
    1b10:	88 81       	ld	r24, Y
    1b12:	88 23       	and	r24, r24
    1b14:	99 f0       	breq	.+38     	; 0x1b3c <pb_test_loop+0x78>
      if(auto_mode) {
    1b16:	80 91 51 01 	lds	r24, 0x0151
    1b1a:	88 23       	and	r24, r24
    1b1c:	21 f0       	breq	.+8      	; 0x1b26 <pb_test_loop+0x62>
        // next iteration after
        pb_test_send_packet(1);
    1b1e:	81 e0       	ldi	r24, 0x01	; 1
    1b20:	0e 94 4d 0d 	call	0x1a9a	; 0x1a9a <pb_test_send_packet>
    1b24:	0b c0       	rjmp	.+22     	; 0x1b3c <pb_test_loop+0x78>
      } else {
        silent_mode = 0;
    1b26:	10 92 52 01 	sts	0x0152, r1
    1b2a:	08 c0       	rjmp	.+16     	; 0x1b3c <pb_test_loop+0x78>
      }
    }
  }
  // pb proto failed with an error
  else if(status != PBPROTO_STATUS_IDLE) {
    1b2c:	88 23       	and	r24, r24
    1b2e:	31 f0       	breq	.+12     	; 0x1b3c <pb_test_loop+0x78>
    // disable auto mode
    if(auto_mode) {
    1b30:	80 91 51 01 	lds	r24, 0x0151
    1b34:	88 23       	and	r24, r24
    1b36:	11 f0       	breq	.+4      	; 0x1b3c <pb_test_loop+0x78>
      pb_test_toggle_auto();
    1b38:	0e 94 52 0d 	call	0x1aa4	; 0x1aa4 <pb_test_toggle_auto>
  toggle_request = 0;
  silent_mode = 0;

  // test loop
  uint8_t result = CMD_WORKER_IDLE;
  while(run_mode == RUN_MODE_PB_TEST) {
    1b3c:	80 91 42 01 	lds	r24, 0x0142
    1b40:	82 30       	cpi	r24, 0x02	; 2
    1b42:	d9 f2       	breq	.-74     	; 0x1afa <pb_test_loop+0x36>
    // NOTE: UART cmd_worker handling was here, reset by loop break

    pb_test_worker();
  }

  stats_dump(1,0);
    1b44:	81 e0       	ldi	r24, 0x01	; 1
    1b46:	60 e0       	ldi	r22, 0x00	; 0
    1b48:	0e 94 5e 13 	call	0x26bc	; 0x26bc <stats_dump>

	// NOTE: UART - time_stamp_spc() [PB_TEST] off\r\n

  return result;
}
    1b4c:	80 e0       	ldi	r24, 0x00	; 0
    1b4e:	df 91       	pop	r29
    1b50:	cf 91       	pop	r28
    1b52:	1f 91       	pop	r17
    1b54:	0f 91       	pop	r16
    1b56:	08 95       	ret

00001b58 <proc_pkt>:

  return PBPROTO_STATUS_OK;
}

static uint8_t proc_pkt(const uint8_t *buf, uint16_t size)
{
    1b58:	0f 93       	push	r16
    1b5a:	1f 93       	push	r17
    1b5c:	cf 93       	push	r28
    1b5e:	df 93       	push	r29
    1b60:	8c 01       	movw	r16, r24
    1b62:	c0 e0       	ldi	r28, 0x00	; 0
    1b64:	d0 e0       	ldi	r29, 0x00	; 0
    1b66:	80 91 6b 01 	lds	r24, 0x016B
    1b6a:	90 91 6c 01 	lds	r25, 0x016C
    1b6e:	86 17       	cp	r24, r22
    1b70:	97 07       	cpc	r25, r23
    1b72:	11 f0       	breq	.+4      	; 0x1b78 <proc_pkt+0x20>
    1b74:	c1 e0       	ldi	r28, 0x01	; 1
    1b76:	d0 e0       	ldi	r29, 0x00	; 0
    errors = 1;
    // NOTE: UART - ERR: size\r\n
  }

  // +0: check dst mac
  if(!net_compare_mac(buf, net_bcast_mac)) {
    1b78:	c8 01       	movw	r24, r16
    1b7a:	60 e0       	ldi	r22, 0x00	; 0
    1b7c:	71 e0       	ldi	r23, 0x01	; 1
    1b7e:	0e 94 47 08 	call	0x108e	; 0x108e <net_compare_mac>
    1b82:	88 23       	and	r24, r24
    1b84:	09 f4       	brne	.+2      	; 0x1b88 <proc_pkt+0x30>
    errors++;
    1b86:	21 96       	adiw	r28, 0x01	; 1
    // NOTE: UART - ERR: dst mac\r\n
  }
  // +6: check src mac
  if(!net_compare_mac(buf+6, param.mac_addr)) {
    1b88:	c8 01       	movw	r24, r16
    1b8a:	06 96       	adiw	r24, 0x06	; 6
    1b8c:	63 e6       	ldi	r22, 0x63	; 99
    1b8e:	71 e0       	ldi	r23, 0x01	; 1
    1b90:	0e 94 47 08 	call	0x108e	; 0x108e <net_compare_mac>
    1b94:	88 23       	and	r24, r24
    1b96:	09 f4       	brne	.+2      	; 0x1b9a <proc_pkt+0x42>
    errors++;
    1b98:	21 96       	adiw	r28, 0x01	; 1
    // NOTE: UART - ERR: src mac\r\n
  }
  // +12,+13: pkt type
  uint8_t ptype_hi = (uint8_t)(param.test_ptype >> 8);
    1b9a:	ed e6       	ldi	r30, 0x6D	; 109
    1b9c:	f1 e0       	ldi	r31, 0x01	; 1
    1b9e:	20 81       	ld	r18, Z
    1ba0:	91 81       	ldd	r25, Z+1	; 0x01
  uint8_t ptype_lo = (uint8_t)(param.test_ptype & 0xff);
  if((buf[12] != ptype_hi) || (buf[13] != ptype_lo)) {
    1ba2:	f8 01       	movw	r30, r16
    1ba4:	84 85       	ldd	r24, Z+12	; 0x0c
    1ba6:	89 17       	cp	r24, r25
    1ba8:	11 f4       	brne	.+4      	; 0x1bae <proc_pkt+0x56>
    1baa:	85 85       	ldd	r24, Z+13	; 0x0d
    1bac:	82 13       	cpse	r24, r18
    errors++;
    1bae:	21 96       	adiw	r28, 0x01	; 1
    uart_send_spc();
  }
  uart_send_crlf();
#endif

  if(errors > 0) {
    1bb0:	cd 2b       	or	r28, r29
    1bb2:	11 f4       	brne	.+4      	; 0x1bb8 <proc_pkt+0x60>
    1bb4:	81 e0       	ldi	r24, 0x01	; 1
    1bb6:	01 c0       	rjmp	.+2      	; 0x1bba <proc_pkt+0x62>
    1bb8:	86 e0       	ldi	r24, 0x06	; 6
		// NOTE: UART - TOTAL ERRORS hex_word(errors)\r\n
    return PBPROTO_STATUS_ERROR;
  } else {
    return PBPROTO_STATUS_OK;
  }
}
    1bba:	df 91       	pop	r29
    1bbc:	cf 91       	pop	r28
    1bbe:	1f 91       	pop	r17
    1bc0:	0f 91       	pop	r16
    1bc2:	08 95       	ret

00001bc4 <fill_pkt>:
static uint8_t silent_mode;

// ----- Packet Callbacks -----

static uint8_t fill_pkt(uint8_t *buf, uint16_t max_size, uint16_t *size)
{
    1bc4:	ef 92       	push	r14
    1bc6:	ff 92       	push	r15
    1bc8:	0f 93       	push	r16
    1bca:	1f 93       	push	r17
    1bcc:	cf 93       	push	r28
    1bce:	df 93       	push	r29
    1bd0:	ec 01       	movw	r28, r24
    1bd2:	7a 01       	movw	r14, r20
  *size = param.test_plen;
    1bd4:	80 91 6b 01 	lds	r24, 0x016B
    1bd8:	90 91 6c 01 	lds	r25, 0x016C
    1bdc:	fa 01       	movw	r30, r20
    1bde:	91 83       	std	Z+1, r25	; 0x01
    1be0:	80 83       	st	Z, r24
  if(*size > max_size) {
    1be2:	68 17       	cp	r22, r24
    1be4:	79 07       	cpc	r23, r25
    1be6:	10 f4       	brcc	.+4      	; 0x1bec <fill_pkt+0x28>
    1be8:	85 e0       	ldi	r24, 0x05	; 5
    1bea:	29 c0       	rjmp	.+82     	; 0x1c3e <fill_pkt+0x7a>
    return PBPROTO_STATUS_PACKET_TOO_LARGE;
  }

  net_copy_mac(net_bcast_mac, buf);
    1bec:	80 e0       	ldi	r24, 0x00	; 0
    1bee:	91 e0       	ldi	r25, 0x01	; 1
    1bf0:	be 01       	movw	r22, r28
    1bf2:	0e 94 db 07 	call	0xfb6	; 0xfb6 <net_copy_mac>
  net_copy_mac(param.mac_addr, buf+6);
    1bf6:	03 e6       	ldi	r16, 0x63	; 99
    1bf8:	11 e0       	ldi	r17, 0x01	; 1
    1bfa:	be 01       	movw	r22, r28
    1bfc:	6a 5f       	subi	r22, 0xFA	; 250
    1bfe:	7f 4f       	sbci	r23, 0xFF	; 255
    1c00:	c8 01       	movw	r24, r16
    1c02:	0e 94 db 07 	call	0xfb6	; 0xfb6 <net_copy_mac>

  uint8_t ptype_hi = (uint8_t)(param.test_ptype >> 8);
    1c06:	06 5f       	subi	r16, 0xF6	; 246
    1c08:	1f 4f       	sbci	r17, 0xFF	; 255
    1c0a:	f8 01       	movw	r30, r16
    1c0c:	90 81       	ld	r25, Z
    1c0e:	81 81       	ldd	r24, Z+1	; 0x01
  uint8_t ptype_lo = (uint8_t)(param.test_ptype & 0xff);
  buf[12] = ptype_hi;
    1c10:	8c 87       	std	Y+12, r24	; 0x0c
  buf[13] = ptype_lo;
    1c12:	9d 87       	std	Y+13, r25	; 0x0d

  uint8_t *ptr = buf + 14;
  uint16_t num = *size - 14;
    1c14:	f7 01       	movw	r30, r14
    1c16:	80 81       	ld	r24, Z
    1c18:	91 81       	ldd	r25, Z+1	; 0x01
    1c1a:	ac 01       	movw	r20, r24
    1c1c:	4e 50       	subi	r20, 0x0E	; 14
    1c1e:	50 40       	sbci	r21, 0x00	; 0
  uint8_t val = 0;
  while(num > 0) {
    1c20:	69 f0       	breq	.+26     	; 0x1c3c <fill_pkt+0x78>
    1c22:	6c 2f       	mov	r22, r28
    1c24:	2c 2f       	mov	r18, r28
    1c26:	3d 2f       	mov	r19, r29
    1c28:	f9 01       	movw	r30, r18
    *ptr = val;
    1c2a:	8e 2f       	mov	r24, r30
    1c2c:	86 1b       	sub	r24, r22
    1c2e:	86 87       	std	Z+14, r24	; 0x0e
    ptr++;
    val++;
    num--;
    1c30:	41 50       	subi	r20, 0x01	; 1
    1c32:	50 40       	sbci	r21, 0x00	; 0
    1c34:	31 96       	adiw	r30, 0x01	; 1
  buf[13] = ptype_lo;

  uint8_t *ptr = buf + 14;
  uint16_t num = *size - 14;
  uint8_t val = 0;
  while(num > 0) {
    1c36:	41 15       	cp	r20, r1
    1c38:	51 05       	cpc	r21, r1
    1c3a:	b9 f7       	brne	.-18     	; 0x1c2a <fill_pkt+0x66>
    1c3c:	81 e0       	ldi	r24, 0x01	; 1
    val++;
    num--;
  }

  return PBPROTO_STATUS_OK;
}
    1c3e:	df 91       	pop	r29
    1c40:	cf 91       	pop	r28
    1c42:	1f 91       	pop	r17
    1c44:	0f 91       	pop	r16
    1c46:	ff 90       	pop	r15
    1c48:	ef 90       	pop	r14
    1c4a:	08 95       	ret

00001c4c <pb_util_handle>:
#include "stats.h"
#include "dump.h"
#include "main.h"

uint8_t pb_util_handle(void)
{
    1c4c:	0f 93       	push	r16
  const pb_proto_stat_t *ps = &pb_proto_stat;

  // call protocol handler (low level transmit)
  uint8_t status = pb_proto_handle();
    1c4e:	0e 94 23 0a 	call	0x1446	; 0x1446 <pb_proto_handle>
    1c52:	08 2f       	mov	r16, r24
  if(status == PBPROTO_STATUS_IDLE)
    1c54:	88 23       	and	r24, r24
    1c56:	29 f1       	breq	.+74     	; 0x1ca2 <pb_util_handle+0x56>
    return PBPROTO_STATUS_IDLE; // Nothing done... return

  if(status == PBPROTO_STATUS_OK) {
    1c58:	81 30       	cpi	r24, 0x01	; 1
    1c5a:	91 f4       	brne	.+36     	; 0x1c80 <pb_util_handle+0x34>
		// Everything went OK
    // Update stats
    stats_update_ok(ps->stats_id, ps->size, ps->rate);
    1c5c:	e9 e7       	ldi	r30, 0x79	; 121
    1c5e:	f1 e0       	ldi	r31, 0x01	; 1
    1c60:	61 81       	ldd	r22, Z+1	; 0x01
    1c62:	72 81       	ldd	r23, Z+2	; 0x02
    1c64:	45 81       	ldd	r20, Z+5	; 0x05
    1c66:	56 81       	ldd	r21, Z+6	; 0x06
    1c68:	80 81       	ld	r24, Z
    1c6a:	0e 94 34 13 	call	0x2668	; 0x2668 <stats_update_ok>
    if(global_verbose)
    1c6e:	80 91 43 01 	lds	r24, 0x0143
    1c72:	88 23       	and	r24, r24
    1c74:	b1 f0       	breq	.+44     	; 0x1ca2 <pb_util_handle+0x56>
      dump_pb_cmd(ps); // In interactive (verbose) mode show result
    1c76:	86 e7       	ldi	r24, 0x76	; 118
    1c78:	91 e0       	ldi	r25, 0x01	; 1
    1c7a:	0e 94 ee 06 	call	0xddc	; 0xddc <dump_pb_cmd>
    1c7e:	11 c0       	rjmp	.+34     	; 0x1ca2 <pb_util_handle+0x56>
  }
  else {
		// PB proto failed with an error
    // Dump error
    dump_pb_cmd(ps);
    1c80:	86 e7       	ldi	r24, 0x76	; 118
    1c82:	91 e0       	ldi	r25, 0x01	; 1
    1c84:	0e 94 ee 06 	call	0xddc	; 0xddc <dump_pb_cmd>
    1c88:	e0 91 79 01 	lds	r30, 0x0179
    1c8c:	8c e0       	ldi	r24, 0x0C	; 12
    1c8e:	e8 9f       	mul	r30, r24
    1c90:	f0 01       	movw	r30, r0
    1c92:	11 24       	eor	r1, r1
    1c94:	e0 59       	subi	r30, 0x90	; 144
    1c96:	f8 4f       	sbci	r31, 0xF8	; 248
    // Update stats
    stats_get(ps->stats_id)->err++;
    1c98:	86 81       	ldd	r24, Z+6	; 0x06
    1c9a:	97 81       	ldd	r25, Z+7	; 0x07
    1c9c:	01 96       	adiw	r24, 0x01	; 1
    1c9e:	97 83       	std	Z+7, r25	; 0x07
    1ca0:	86 83       	std	Z+6, r24	; 0x06
  }
  return status;
}
    1ca2:	80 2f       	mov	r24, r16
    1ca4:	0f 91       	pop	r16
    1ca6:	08 95       	ret

00001ca8 <pio_set_device>:
    dev_id = id;
    return 1;
  }
  // invalid device selected
  return 0;
}
    1ca8:	80 e0       	ldi	r24, 0x00	; 0
    1caa:	08 95       	ret

00001cac <pio_init>:

uint8_t pio_init(const uint8_t mac[6],uint8_t flags)
{
    1cac:	df 93       	push	r29
    1cae:	cf 93       	push	r28
    1cb0:	0f 92       	push	r0
    1cb2:	cd b7       	in	r28, 0x3d	; 61
    1cb4:	de b7       	in	r29, 0x3e	; 62
  // get current device
  cur_dev = (pio_dev_ptr_t)pgm_read_word(devices + dev_id);
    1cb6:	20 91 53 01 	lds	r18, 0x0153
    1cba:	30 e0       	ldi	r19, 0x00	; 0
    1cbc:	22 0f       	add	r18, r18
    1cbe:	33 1f       	adc	r19, r19
    1cc0:	f9 01       	movw	r30, r18
    1cc2:	e2 55       	subi	r30, 0x52	; 82
    1cc4:	fc 4f       	sbci	r31, 0xFC	; 252
    1cc6:	25 91       	lpm	r18, Z+
    1cc8:	34 91       	lpm	r19, Z+
    1cca:	30 93 55 01 	sts	0x0155, r19
    1cce:	20 93 54 01 	sts	0x0154, r18
    1cd2:	2e 5f       	subi	r18, 0xFE	; 254
    1cd4:	3f 4f       	sbci	r19, 0xFF	; 255
    1cd6:	f9 01       	movw	r30, r18
    1cd8:	45 91       	lpm	r20, Z+
    1cda:	54 91       	lpm	r21, Z+
    1cdc:	fa 01       	movw	r30, r20
    1cde:	09 95       	icall
  // show hello
  // NOTE: UART - time_stamp_spc() pio: init: pio_dev_name(cur_dev)

  // call init
  uint8_t result = pio_dev_init(cur_dev, mac, flags);
  if(result == PIO_OK) {
    1ce0:	88 23       	and	r24, r24
    1ce2:	71 f4       	brne	.+28     	; 0x1d00 <pio_init+0x54>
    1ce4:	80 91 54 01 	lds	r24, 0x0154
    1ce8:	90 91 55 01 	lds	r25, 0x0155
    1cec:	0c 96       	adiw	r24, 0x0c	; 12
    1cee:	fc 01       	movw	r30, r24
    1cf0:	25 91       	lpm	r18, Z+
    1cf2:	34 91       	lpm	r19, Z+
    1cf4:	80 e0       	ldi	r24, 0x00	; 0
    1cf6:	be 01       	movw	r22, r28
    1cf8:	6f 5f       	subi	r22, 0xFF	; 255
    1cfa:	7f 4f       	sbci	r23, 0xFF	; 255
    1cfc:	f9 01       	movw	r30, r18
    1cfe:	09 95       	icall
  } else {
		// NOTE: UART = ERROR: hex_byte(result)
  }
  // NOTE: UART - \r\n
  return result;
}
    1d00:	0f 90       	pop	r0
    1d02:	cf 91       	pop	r28
    1d04:	df 91       	pop	r29
    1d06:	08 95       	ret

00001d08 <pio_exit>:
    1d08:	80 91 54 01 	lds	r24, 0x0154
    1d0c:	90 91 55 01 	lds	r25, 0x0155
    1d10:	04 96       	adiw	r24, 0x04	; 4
    1d12:	fc 01       	movw	r30, r24
    1d14:	25 91       	lpm	r18, Z+
    1d16:	34 91       	lpm	r19, Z+
    1d18:	f9 01       	movw	r30, r18
    1d1a:	09 95       	icall

void pio_exit(void)
{
	// NOTE: UART - time_stamp_spc() pio: exit\r\n
  pio_dev_exit(cur_dev);
}
    1d1c:	08 95       	ret

00001d1e <pio_send>:
    1d1e:	20 91 54 01 	lds	r18, 0x0154
    1d22:	30 91 55 01 	lds	r19, 0x0155
    1d26:	2a 5f       	subi	r18, 0xFA	; 250
    1d28:	3f 4f       	sbci	r19, 0xFF	; 255
    1d2a:	f9 01       	movw	r30, r18
    1d2c:	45 91       	lpm	r20, Z+
    1d2e:	54 91       	lpm	r21, Z+
    1d30:	fa 01       	movw	r30, r20
    1d32:	09 95       	icall

uint8_t pio_send(const uint8_t *buf, uint16_t size)
{
  return pio_dev_send(cur_dev, buf, size);
}
    1d34:	08 95       	ret

00001d36 <pio_recv>:
    1d36:	20 91 54 01 	lds	r18, 0x0154
    1d3a:	30 91 55 01 	lds	r19, 0x0155
    1d3e:	28 5f       	subi	r18, 0xF8	; 248
    1d40:	3f 4f       	sbci	r19, 0xFF	; 255
    1d42:	f9 01       	movw	r30, r18
    1d44:	a5 91       	lpm	r26, Z+
    1d46:	b4 91       	lpm	r27, Z+
    1d48:	fd 01       	movw	r30, r26
    1d4a:	09 95       	icall

uint8_t pio_recv(uint8_t *buf, uint16_t max_size, uint16_t *got_size)
{
  return pio_dev_recv(cur_dev, buf, max_size, got_size);
}
    1d4c:	08 95       	ret

00001d4e <pio_has_recv>:
    1d4e:	80 91 54 01 	lds	r24, 0x0154
    1d52:	90 91 55 01 	lds	r25, 0x0155
    1d56:	0a 96       	adiw	r24, 0x0a	; 10
    1d58:	fc 01       	movw	r30, r24
    1d5a:	25 91       	lpm	r18, Z+
    1d5c:	34 91       	lpm	r19, Z+
    1d5e:	f9 01       	movw	r30, r18
    1d60:	09 95       	icall

uint8_t pio_has_recv(void)
{
  return pio_dev_has_recv(cur_dev);
}
    1d62:	08 95       	ret

00001d64 <pio_status>:
    1d64:	20 91 54 01 	lds	r18, 0x0154
    1d68:	30 91 55 01 	lds	r19, 0x0155
    1d6c:	24 5f       	subi	r18, 0xF4	; 244
    1d6e:	3f 4f       	sbci	r19, 0xFF	; 255
    1d70:	f9 01       	movw	r30, r18
    1d72:	45 91       	lpm	r20, Z+
    1d74:	54 91       	lpm	r21, Z+
    1d76:	fa 01       	movw	r30, r20
    1d78:	09 95       	icall

uint8_t pio_status(uint8_t status_id, uint8_t *value)
{
  return pio_dev_status(cur_dev, status_id, value);
}
    1d7a:	08 95       	ret

00001d7c <pio_control>:
    1d7c:	20 91 54 01 	lds	r18, 0x0154
    1d80:	30 91 55 01 	lds	r19, 0x0155
    1d84:	22 5f       	subi	r18, 0xF2	; 242
    1d86:	3f 4f       	sbci	r19, 0xFF	; 255
    1d88:	f9 01       	movw	r30, r18
    1d8a:	45 91       	lpm	r20, Z+
    1d8c:	54 91       	lpm	r21, Z+
    1d8e:	fa 01       	movw	r30, r20
    1d90:	09 95       	icall

uint8_t pio_control(uint8_t control_id, uint8_t value)
{
  return pio_dev_control(cur_dev, control_id, value);
}
    1d92:	08 95       	ret

00001d94 <pio_test_loop>:
/**
 * Packet IO test mode loop.
 * Used to benchmark Amiga-PlipBox comm.
 */
uint8_t pio_test_loop(void)
{
    1d94:	ef 92       	push	r14
    1d96:	ff 92       	push	r15
    1d98:	0f 93       	push	r16
    1d9a:	1f 93       	push	r17
    1d9c:	df 93       	push	r29
    1d9e:	cf 93       	push	r28
    1da0:	00 d0       	rcall	.+0      	; 0x1da2 <pio_test_loop+0xe>
    1da2:	cd b7       	in	r28, 0x3d	; 61
    1da4:	de b7       	in	r29, 0x3e	; 62
  uint8_t result = CMD_WORKER_IDLE;

  // NOTE: UART - time_stamp_spc() [PIO_TEST] on\r\n

  pio_init(param.mac_addr, pio_util_get_init_flags());
    1da6:	0e 94 17 0f 	call	0x1e2e	; 0x1e2e <pio_util_get_init_flags>
    1daa:	68 2f       	mov	r22, r24
    1dac:	83 e6       	ldi	r24, 0x63	; 99
    1dae:	91 e0       	ldi	r25, 0x01	; 1
    1db0:	0e 94 56 0e 	call	0x1cac	; 0x1cac <pio_init>
  stats_reset();
    1db4:	0e 94 1f 13 	call	0x263e	; 0x263e <stats_reset>
    // NOTE: UART cmd_worker() processing here, reset by loop break

    // incoming packet?
    if(pio_has_recv()) {
      uint16_t size;
      if(pio_util_recv_packet(&size) == PIO_OK) {
    1db8:	7e 01       	movw	r14, r28
    1dba:	08 94       	sec
    1dbc:	e1 1c       	adc	r14, r1
    1dbe:	f1 1c       	adc	r15, r1
            // directly send back test packet
            pio_util_send_packet(size);
          }
        }
      } else {
        stats_get(STATS_ID_PIO_RX)->err++;
    1dc0:	0e e8       	ldi	r16, 0x8E	; 142
    1dc2:	17 e0       	ldi	r17, 0x07	; 7
    1dc4:	20 c0       	rjmp	.+64     	; 0x1e06 <pio_test_loop+0x72>
  while(run_mode == RUN_MODE_PIO_TEST) {
    // handle commands
    // NOTE: UART cmd_worker() processing here, reset by loop break

    // incoming packet?
    if(pio_has_recv()) {
    1dc6:	0e 94 a7 0e 	call	0x1d4e	; 0x1d4e <pio_has_recv>
    1dca:	88 23       	and	r24, r24
    1dcc:	e1 f0       	breq	.+56     	; 0x1e06 <pio_test_loop+0x72>
      uint16_t size;
      if(pio_util_recv_packet(&size) == PIO_OK) {
    1dce:	c7 01       	movw	r24, r14
    1dd0:	0e 94 11 10 	call	0x2022	; 0x2022 <pio_util_recv_packet>
    1dd4:	88 23       	and	r24, r24
    1dd6:	89 f4       	brne	.+34     	; 0x1dfa <pio_test_loop+0x66>
        // handle ARP?
        if(!pio_util_handle_arp(size)) {
    1dd8:	89 81       	ldd	r24, Y+1	; 0x01
    1dda:	9a 81       	ldd	r25, Y+2	; 0x02
    1ddc:	0e 94 be 0f 	call	0x1f7c	; 0x1f7c <pio_util_handle_arp>
    1de0:	88 23       	and	r24, r24
    1de2:	89 f4       	brne	.+34     	; 0x1e06 <pio_test_loop+0x72>
          // is it a UDP test packet?
          if(pio_util_handle_udp_test(size)) {
    1de4:	89 81       	ldd	r24, Y+1	; 0x01
    1de6:	9a 81       	ldd	r25, Y+2	; 0x02
    1de8:	0e 94 24 0f 	call	0x1e48	; 0x1e48 <pio_util_handle_udp_test>
    1dec:	88 23       	and	r24, r24
    1dee:	59 f0       	breq	.+22     	; 0x1e06 <pio_test_loop+0x72>
            // directly send back test packet
            pio_util_send_packet(size);
    1df0:	89 81       	ldd	r24, Y+1	; 0x01
    1df2:	9a 81       	ldd	r25, Y+2	; 0x02
    1df4:	0e 94 91 0f 	call	0x1f22	; 0x1f22 <pio_util_send_packet>
    1df8:	06 c0       	rjmp	.+12     	; 0x1e06 <pio_test_loop+0x72>
          }
        }
      } else {
        stats_get(STATS_ID_PIO_RX)->err++;
    1dfa:	f8 01       	movw	r30, r16
    1dfc:	80 81       	ld	r24, Z
    1dfe:	91 81       	ldd	r25, Z+1	; 0x01
    1e00:	01 96       	adiw	r24, 0x01	; 1
    1e02:	91 83       	std	Z+1, r25	; 0x01
    1e04:	80 83       	st	Z, r24
  // NOTE: UART - time_stamp_spc() [PIO_TEST] on\r\n

  pio_init(param.mac_addr, pio_util_get_init_flags());
  stats_reset();

  while(run_mode == RUN_MODE_PIO_TEST) {
    1e06:	80 91 42 01 	lds	r24, 0x0142
    1e0a:	83 30       	cpi	r24, 0x03	; 3
    1e0c:	e1 f2       	breq	.-72     	; 0x1dc6 <pio_test_loop+0x32>
        stats_get(STATS_ID_PIO_RX)->err++;
      }
    }
  }

  stats_dump(0,1);
    1e0e:	80 e0       	ldi	r24, 0x00	; 0
    1e10:	61 e0       	ldi	r22, 0x01	; 1
    1e12:	0e 94 5e 13 	call	0x26bc	; 0x26bc <stats_dump>
  pio_exit();
    1e16:	0e 94 84 0e 	call	0x1d08	; 0x1d08 <pio_exit>

	// NOTE: UART - time_stamp_spc() [PIO_TEST] off\r\n

  return result;
}
    1e1a:	80 e0       	ldi	r24, 0x00	; 0
    1e1c:	0f 90       	pop	r0
    1e1e:	0f 90       	pop	r0
    1e20:	cf 91       	pop	r28
    1e22:	df 91       	pop	r29
    1e24:	1f 91       	pop	r17
    1e26:	0f 91       	pop	r16
    1e28:	ff 90       	pop	r15
    1e2a:	ef 90       	pop	r14
    1e2c:	08 95       	ret

00001e2e <pio_util_get_init_flags>:

uint8_t pio_util_get_init_flags()
{
  uint8_t flags = PIO_INIT_BROAD_CAST;

  if(param.flow_ctl) {
    1e2e:	80 91 69 01 	lds	r24, 0x0169
    1e32:	88 23       	and	r24, r24
    1e34:	11 f0       	breq	.+4      	; 0x1e3a <pio_util_get_init_flags+0xc>
    1e36:	9c e0       	ldi	r25, 0x0C	; 12
    1e38:	01 c0       	rjmp	.+2      	; 0x1e3c <pio_util_get_init_flags+0xe>
    1e3a:	94 e0       	ldi	r25, 0x04	; 4
    flags |= PIO_INIT_FLOW_CONTROL;
  }
  if(param.full_duplex) {
    1e3c:	80 91 6a 01 	lds	r24, 0x016A
    1e40:	81 11       	cpse	r24, r1
    flags |= PIO_INIT_FULL_DUPLEX;
    1e42:	91 60       	ori	r25, 0x01	; 1
  }

  return flags;
}
    1e44:	89 2f       	mov	r24, r25
    1e46:	08 95       	ret

00001e48 <pio_util_handle_udp_test>:

  return 1;
}

uint8_t pio_util_handle_udp_test(uint16_t size)
{
    1e48:	8f 92       	push	r8
    1e4a:	9f 92       	push	r9
    1e4c:	af 92       	push	r10
    1e4e:	bf 92       	push	r11
    1e50:	cf 92       	push	r12
    1e52:	df 92       	push	r13
    1e54:	ef 92       	push	r14
    1e56:	ff 92       	push	r15
    1e58:	0f 93       	push	r16
    1e5a:	1f 93       	push	r17
    1e5c:	cf 93       	push	r28
    1e5e:	df 93       	push	r29
  uint8_t *ip_buf = pkt_buf + ETH_HDR_SIZE;
  uint8_t *udp_buf = ip_buf + ip_get_hdr_length(ip_buf);
    1e60:	04 e9       	ldi	r16, 0x94	; 148
    1e62:	11 e0       	ldi	r17, 0x01	; 1
    1e64:	f8 01       	movw	r30, r16
    1e66:	80 81       	ld	r24, Z
    1e68:	88 0f       	add	r24, r24
    1e6a:	88 0f       	add	r24, r24
    1e6c:	8c 73       	andi	r24, 0x3C	; 60
    1e6e:	58 01       	movw	r10, r16
    1e70:	a8 0e       	add	r10, r24
    1e72:	b1 1c       	adc	r11, r1
    1e74:	c5 01       	movw	r24, r10
    1e76:	02 96       	adiw	r24, 0x02	; 2
    1e78:	0e 94 fb 07 	call	0xff6	; 0xff6 <net_get_word>
    1e7c:	ec 01       	movw	r28, r24
  const uint8_t *dst_ip = ip_get_tgt_ip(ip_buf);
  uint16_t dst_port = udp_get_tgt_port(udp_buf);
  const uint8_t *data_ptr = udp_get_data_ptr(udp_buf);

  // for us?
  if(net_compare_ip(param.test_ip, dst_ip) && (dst_port == param.test_port)) {
    1e7e:	00 5f       	subi	r16, 0xF0	; 240
    1e80:	1f 4f       	sbci	r17, 0xFF	; 255
    1e82:	8f e6       	ldi	r24, 0x6F	; 111
    1e84:	91 e0       	ldi	r25, 0x01	; 1
    1e86:	b8 01       	movw	r22, r16
    1e88:	0e 94 5d 08 	call	0x10ba	; 0x10ba <net_compare_ip>
    1e8c:	88 23       	and	r24, r24
    1e8e:	d9 f1       	breq	.+118    	; 0x1f06 <pio_util_handle_udp_test+0xbe>
    1e90:	80 90 73 01 	lds	r8, 0x0173
    1e94:	90 90 74 01 	lds	r9, 0x0174
    1e98:	8c 16       	cp	r8, r28
    1e9a:	9d 06       	cpc	r9, r29
    1e9c:	a1 f5       	brne	.+104    	; 0x1f06 <pio_util_handle_udp_test+0xbe>
    }

    // send UDP packet back again
    // flip IP/UDP
    const uint8_t *src_ip = ip_get_src_ip(ip_buf);
    net_copy_ip(src_ip, ip_buf + 16); // set tgt ip
    1e9e:	00 ea       	ldi	r16, 0xA0	; 160
    1ea0:	11 e0       	ldi	r17, 0x01	; 1
    1ea2:	b8 01       	movw	r22, r16
    1ea4:	6c 5f       	subi	r22, 0xFC	; 252
    1ea6:	7f 4f       	sbci	r23, 0xFF	; 255
    1ea8:	c8 01       	movw	r24, r16
    1eaa:	0e 94 ea 07 	call	0xfd4	; 0xfd4 <net_copy_ip>
    net_copy_ip(param.test_ip, ip_buf + 12); // set src ip
    1eae:	0f 2e       	mov	r0, r31
    1eb0:	ff e6       	ldi	r31, 0x6F	; 111
    1eb2:	cf 2e       	mov	r12, r31
    1eb4:	f1 e0       	ldi	r31, 0x01	; 1
    1eb6:	df 2e       	mov	r13, r31
    1eb8:	f0 2d       	mov	r31, r0
    1eba:	c6 01       	movw	r24, r12
    1ebc:	b8 01       	movw	r22, r16
    1ebe:	0e 94 ea 07 	call	0xfd4	; 0xfd4 <net_copy_ip>
#define UDP_LENGTH_OFF    4
#define UDP_CHECKSUM_OFF  6
#define UDP_DATA_OFF      8

inline const uint8_t *udp_get_data_ptr(const uint8_t *udp_buf) { return udp_buf + UDP_DATA_OFF; }
inline uint16_t  udp_get_src_port(const uint8_t *udp_buf) { return net_get_word(udp_buf + UDP_SRC_PORT_OFF); }
    1ec2:	c5 01       	movw	r24, r10
    1ec4:	0e 94 fb 07 	call	0xff6	; 0xff6 <net_get_word>
    1ec8:	7c 01       	movw	r14, r24
    uint16_t src_port = udp_get_src_port(udp_buf);
    net_put_word(udp_buf + UDP_SRC_PORT_OFF, dst_port);
    1eca:	c5 01       	movw	r24, r10
    1ecc:	b4 01       	movw	r22, r8
    1ece:	0e 94 05 08 	call	0x100a	; 0x100a <net_put_word>
    net_put_word(udp_buf + UDP_TGT_PORT_OFF, src_port);
    1ed2:	c5 01       	movw	r24, r10
    1ed4:	02 96       	adiw	r24, 0x02	; 2
    1ed6:	b7 01       	movw	r22, r14
    1ed8:	0e 94 05 08 	call	0x100a	; 0x100a <net_put_word>

    // flip eth
    net_copy_mac(pkt_buf + ETH_OFF_SRC_MAC, pkt_buf + ETH_OFF_TGT_MAC);
    1edc:	0f 2e       	mov	r0, r31
    1ede:	fc ee       	ldi	r31, 0xEC	; 236
    1ee0:	ef 2e       	mov	r14, r31
    1ee2:	ff ef       	ldi	r31, 0xFF	; 255
    1ee4:	ff 2e       	mov	r15, r31
    1ee6:	f0 2d       	mov	r31, r0
    1ee8:	e0 0e       	add	r14, r16
    1eea:	f1 1e       	adc	r15, r17
    1eec:	0a 51       	subi	r16, 0x1A	; 26
    1eee:	10 40       	sbci	r17, 0x00	; 0
    1ef0:	c7 01       	movw	r24, r14
    1ef2:	b8 01       	movw	r22, r16
    1ef4:	0e 94 db 07 	call	0xfb6	; 0xfb6 <net_copy_mac>
    net_copy_mac(param.mac_addr, pkt_buf + ETH_OFF_SRC_MAC);
    1ef8:	c6 01       	movw	r24, r12
    1efa:	0c 97       	sbiw	r24, 0x0c	; 12
    1efc:	b7 01       	movw	r22, r14
    1efe:	0e 94 db 07 	call	0xfb6	; 0xfb6 <net_copy_mac>
    1f02:	81 e0       	ldi	r24, 0x01	; 1
    1f04:	01 c0       	rjmp	.+2      	; 0x1f08 <pio_util_handle_udp_test+0xc0>

    return 1;
    1f06:	80 e0       	ldi	r24, 0x00	; 0
 } else {
 	return 0;
 }
}
    1f08:	df 91       	pop	r29
    1f0a:	cf 91       	pop	r28
    1f0c:	1f 91       	pop	r17
    1f0e:	0f 91       	pop	r16
    1f10:	ff 90       	pop	r15
    1f12:	ef 90       	pop	r14
    1f14:	df 90       	pop	r13
    1f16:	cf 90       	pop	r12
    1f18:	bf 90       	pop	r11
    1f1a:	af 90       	pop	r10
    1f1c:	9f 90       	pop	r9
    1f1e:	8f 90       	pop	r8
    1f20:	08 95       	ret

00001f22 <pio_util_send_packet>:
  }
  return result;
}

uint8_t pio_util_send_packet(uint16_t size)
{
    1f22:	ff 92       	push	r15
    1f24:	0f 93       	push	r16
    1f26:	1f 93       	push	r17
    1f28:	cf 93       	push	r28
    1f2a:	df 93       	push	r29
    1f2c:	ec 01       	movw	r28, r24
extern void timer_delay_100us(uint16_t timeout);

// ----- hardware timer -----

// 16 bit hw timer with 4us resolution
inline void timer_hw_reset(void) { TCNT1 = 0; }
    1f2e:	04 e8       	ldi	r16, 0x84	; 132
    1f30:	10 e0       	ldi	r17, 0x00	; 0
    1f32:	f8 01       	movw	r30, r16
    1f34:	11 82       	std	Z+1, r1	; 0x01
    1f36:	10 82       	st	Z, r1
  timer_hw_reset();
  uint8_t result = pio_send(pkt_buf, size);
    1f38:	86 e8       	ldi	r24, 0x86	; 134
    1f3a:	91 e0       	ldi	r25, 0x01	; 1
    1f3c:	be 01       	movw	r22, r28
    1f3e:	0e 94 8f 0e 	call	0x1d1e	; 0x1d1e <pio_send>
    1f42:	f8 2e       	mov	r15, r24
inline uint16_t  timer_hw_get(void) { return TCNT1; }
    1f44:	f8 01       	movw	r30, r16
    1f46:	60 81       	ld	r22, Z
    1f48:	71 81       	ldd	r23, Z+1	; 0x01
  uint16_t delta = timer_hw_get();

  uint16_t rate = timer_hw_calc_rate_kbs(size, delta);
    1f4a:	ce 01       	movw	r24, r28
    1f4c:	0e 94 94 02 	call	0x528	; 0x528 <timer_hw_calc_rate_kbs>
    1f50:	ac 01       	movw	r20, r24
  if(result == PIO_OK) {
    1f52:	ff 20       	and	r15, r15
    1f54:	29 f4       	brne	.+10     	; 0x1f60 <pio_util_send_packet+0x3e>
    stats_update_ok(STATS_ID_PIO_TX, size, rate);
    1f56:	83 e0       	ldi	r24, 0x03	; 3
    1f58:	be 01       	movw	r22, r28
    1f5a:	0e 94 34 13 	call	0x2668	; 0x2668 <stats_update_ok>
    1f5e:	07 c0       	rjmp	.+14     	; 0x1f6e <pio_util_send_packet+0x4c>
  } else {
    stats_get(STATS_ID_PIO_TX)->err++;
    1f60:	ea e9       	ldi	r30, 0x9A	; 154
    1f62:	f7 e0       	ldi	r31, 0x07	; 7
    1f64:	80 81       	ld	r24, Z
    1f66:	91 81       	ldd	r25, Z+1	; 0x01
    1f68:	01 96       	adiw	r24, 0x01	; 1
    1f6a:	91 83       	std	Z+1, r25	; 0x01
    1f6c:	80 83       	st	Z, r24
    } else {
			// NOTE: UART - ERROR=hex_byte(result)\r\n
    }
  }
  return result;
}
    1f6e:	8f 2d       	mov	r24, r15
    1f70:	df 91       	pop	r29
    1f72:	cf 91       	pop	r28
    1f74:	1f 91       	pop	r17
    1f76:	0f 91       	pop	r16
    1f78:	ff 90       	pop	r15
    1f7a:	08 95       	ret

00001f7c <pio_util_handle_arp>:

uint8_t pio_util_handle_arp(uint16_t size)
{
    1f7c:	ef 92       	push	r14
    1f7e:	ff 92       	push	r15
    1f80:	0f 93       	push	r16
    1f82:	1f 93       	push	r17
    1f84:	cf 93       	push	r28
    1f86:	df 93       	push	r29
    1f88:	ec 01       	movw	r28, r24
    1f8a:	82 e9       	ldi	r24, 0x92	; 146
    1f8c:	91 e0       	ldi	r25, 0x01	; 1
    1f8e:	0e 94 fb 07 	call	0xff6	; 0xff6 <net_get_word>
  uint16_t type = eth_get_pkt_type(pkt_buf);
  if(type != ETH_TYPE_ARP) {
    1f92:	86 50       	subi	r24, 0x06	; 6
    1f94:	98 40       	sbci	r25, 0x08	; 8
    1f96:	d9 f5       	brne	.+118    	; 0x200e <pio_util_handle_arp+0x92>
    return 0;
  }
  if(size <= ETH_HDR_SIZE) {
    1f98:	cf 30       	cpi	r28, 0x0F	; 15
    1f9a:	d1 05       	cpc	r29, r1
    1f9c:	c0 f1       	brcs	.+112    	; 0x200e <pio_util_handle_arp+0x92>
  // payload buf/size
  uint8_t *pl_buf = pkt_buf + ETH_HDR_SIZE;
  uint16_t pl_size = size - ETH_HDR_SIZE;

  // is an ARP request
  if(arp_is_ipv4(pl_buf, pl_size) && (arp_get_op(pl_buf) == ARP_REQUEST)) {
    1f9e:	be 01       	movw	r22, r28
    1fa0:	6e 50       	subi	r22, 0x0E	; 14
    1fa2:	70 40       	sbci	r23, 0x00	; 0
    1fa4:	84 e9       	ldi	r24, 0x94	; 148
    1fa6:	91 e0       	ldi	r25, 0x01	; 1
    1fa8:	0e 94 b2 07 	call	0xf64	; 0xf64 <arp_is_ipv4>
    1fac:	88 23       	and	r24, r24
    1fae:	89 f1       	breq	.+98     	; 0x2012 <pio_util_handle_arp+0x96>
    1fb0:	8a e9       	ldi	r24, 0x9A	; 154
    1fb2:	91 e0       	ldi	r25, 0x01	; 1
    1fb4:	0e 94 fb 07 	call	0xff6	; 0xff6 <net_get_word>
    1fb8:	01 97       	sbiw	r24, 0x01	; 1
    1fba:	59 f5       	brne	.+86     	; 0x2012 <pio_util_handle_arp+0x96>

    if(global_verbose) {
			// NOTE: UART - time_stamp_spc() ARP REQ: IP=tgt_ip\r\n
    }

    if(net_compare_ip(tgt_ip, param.test_ip)) {
    1fbc:	8c ea       	ldi	r24, 0xAC	; 172
    1fbe:	91 e0       	ldi	r25, 0x01	; 1
    1fc0:	6f e6       	ldi	r22, 0x6F	; 111
    1fc2:	71 e0       	ldi	r23, 0x01	; 1
    1fc4:	0e 94 5d 08 	call	0x10ba	; 0x10ba <net_compare_ip>
    1fc8:	88 23       	and	r24, r24
    1fca:	19 f1       	breq	.+70     	; 0x2012 <pio_util_handle_arp+0x96>
      arp_make_reply(pl_buf, param.mac_addr, param.test_ip);
    1fcc:	04 e9       	ldi	r16, 0x94	; 148
    1fce:	11 e0       	ldi	r17, 0x01	; 1
    1fd0:	0f 2e       	mov	r0, r31
    1fd2:	f3 e6       	ldi	r31, 0x63	; 99
    1fd4:	ef 2e       	mov	r14, r31
    1fd6:	f1 e0       	ldi	r31, 0x01	; 1
    1fd8:	ff 2e       	mov	r15, r31
    1fda:	f0 2d       	mov	r31, r0
    1fdc:	a7 01       	movw	r20, r14
    1fde:	44 5f       	subi	r20, 0xF4	; 244
    1fe0:	5f 4f       	sbci	r21, 0xFF	; 255
    1fe2:	c8 01       	movw	r24, r16
    1fe4:	b7 01       	movw	r22, r14
    1fe6:	0e 94 74 07 	call	0xee8	; 0xee8 <arp_make_reply>
	net_put_word(pkt + ETH_OFF_TYPE, type);
}

inline void eth_make_bcast(uint8_t *pkt, const uint8_t *my_mac)
{
	net_copy_mac(net_bcast_mac, pkt + ETH_OFF_TGT_MAC);
    1fea:	0e 50       	subi	r16, 0x0E	; 14
    1fec:	10 40       	sbci	r17, 0x00	; 0
    1fee:	80 e0       	ldi	r24, 0x00	; 0
    1ff0:	91 e0       	ldi	r25, 0x01	; 1
    1ff2:	b8 01       	movw	r22, r16
    1ff4:	0e 94 db 07 	call	0xfb6	; 0xfb6 <net_copy_mac>
	net_copy_mac(my_mac, pkt + ETH_OFF_SRC_MAC);
    1ff8:	0a 5f       	subi	r16, 0xFA	; 250
    1ffa:	1f 4f       	sbci	r17, 0xFF	; 255
    1ffc:	c7 01       	movw	r24, r14
    1ffe:	b8 01       	movw	r22, r16
    2000:	0e 94 db 07 	call	0xfb6	; 0xfb6 <net_copy_mac>
      eth_make_bcast(pkt_buf, param.mac_addr);
      pio_util_send_packet(size);
    2004:	ce 01       	movw	r24, r28
    2006:	0e 94 91 0f 	call	0x1f22	; 0x1f22 <pio_util_send_packet>
    200a:	81 e0       	ldi	r24, 0x01	; 1
    200c:	03 c0       	rjmp	.+6      	; 0x2014 <pio_util_handle_arp+0x98>
    200e:	80 e0       	ldi	r24, 0x00	; 0
    2010:	01 c0       	rjmp	.+2      	; 0x2014 <pio_util_handle_arp+0x98>
    2012:	81 e0       	ldi	r24, 0x01	; 1
      }
    }
  }

  return 1;
}
    2014:	df 91       	pop	r29
    2016:	cf 91       	pop	r28
    2018:	1f 91       	pop	r17
    201a:	0f 91       	pop	r16
    201c:	ff 90       	pop	r15
    201e:	ef 90       	pop	r14
    2020:	08 95       	ret

00002022 <pio_util_recv_packet>:

  return flags;
}

uint8_t pio_util_recv_packet(uint16_t *size)
{
    2022:	df 92       	push	r13
    2024:	ef 92       	push	r14
    2026:	ff 92       	push	r15
    2028:	0f 93       	push	r16
    202a:	1f 93       	push	r17
    202c:	7c 01       	movw	r14, r24
extern void timer_delay_100us(uint16_t timeout);

// ----- hardware timer -----

// 16 bit hw timer with 4us resolution
inline void timer_hw_reset(void) { TCNT1 = 0; }
    202e:	04 e8       	ldi	r16, 0x84	; 132
    2030:	10 e0       	ldi	r17, 0x00	; 0
    2032:	f8 01       	movw	r30, r16
    2034:	11 82       	std	Z+1, r1	; 0x01
    2036:	10 82       	st	Z, r1
  // measure packet receive
  timer_hw_reset();
  uint8_t result = pio_recv(pkt_buf, PKT_BUF_SIZE, size);
    2038:	86 e8       	ldi	r24, 0x86	; 134
    203a:	91 e0       	ldi	r25, 0x01	; 1
    203c:	6a ee       	ldi	r22, 0xEA	; 234
    203e:	75 e0       	ldi	r23, 0x05	; 5
    2040:	a7 01       	movw	r20, r14
    2042:	0e 94 9b 0e 	call	0x1d36	; 0x1d36 <pio_recv>
    2046:	d8 2e       	mov	r13, r24
inline uint16_t  timer_hw_get(void) { return TCNT1; }
    2048:	f8 01       	movw	r30, r16
    204a:	60 81       	ld	r22, Z
    204c:	71 81       	ldd	r23, Z+1	; 0x01
  uint16_t delta = timer_hw_get();

  uint16_t s = *size;
    204e:	f7 01       	movw	r30, r14
    2050:	e0 80       	ld	r14, Z
    2052:	f1 80       	ldd	r15, Z+1	; 0x01
  uint16_t rate = timer_hw_calc_rate_kbs(s, delta);
    2054:	c7 01       	movw	r24, r14
    2056:	0e 94 94 02 	call	0x528	; 0x528 <timer_hw_calc_rate_kbs>
    205a:	ac 01       	movw	r20, r24
  if(result == PIO_OK) {
    205c:	dd 20       	and	r13, r13
    205e:	29 f4       	brne	.+10     	; 0x206a <pio_util_recv_packet+0x48>
    stats_update_ok(STATS_ID_PIO_RX, s, rate);
    2060:	82 e0       	ldi	r24, 0x02	; 2
    2062:	b7 01       	movw	r22, r14
    2064:	0e 94 34 13 	call	0x2668	; 0x2668 <stats_update_ok>
    2068:	07 c0       	rjmp	.+14     	; 0x2078 <pio_util_recv_packet+0x56>
  } else {
    stats_get(STATS_ID_PIO_RX)->err++;
    206a:	ee e8       	ldi	r30, 0x8E	; 142
    206c:	f7 e0       	ldi	r31, 0x07	; 7
    206e:	80 81       	ld	r24, Z
    2070:	91 81       	ldd	r25, Z+1	; 0x01
    2072:	01 96       	adiw	r24, 0x01	; 1
    2074:	91 83       	std	Z+1, r25	; 0x01
    2076:	80 83       	st	Z, r24
    } else {
			// NOTE: UART - ERROR=hex_byte(result)\r\n
    }
  }
  return result;
}
    2078:	8d 2d       	mov	r24, r13
    207a:	1f 91       	pop	r17
    207c:	0f 91       	pop	r16
    207e:	ff 90       	pop	r15
    2080:	ef 90       	pop	r14
    2082:	df 90       	pop	r13
    2084:	08 95       	ret

00002086 <readOp>:
    2086:	e5 e2       	ldi	r30, 0x25	; 37
    2088:	f0 e0       	ldi	r31, 0x00	; 0
    208a:	90 81       	ld	r25, Z
    208c:	9b 7f       	andi	r25, 0xFB	; 251
    208e:	90 83       	st	Z, r25
static uint8_t is_full_duplex;
static uint8_t rev;

static uint8_t readOp (uint8_t op, uint8_t address) {
    spi_enable_eth();
    spi_out(op | (address & ADDR_MASK));
    2090:	96 2f       	mov	r25, r22
    2092:	9f 71       	andi	r25, 0x1F	; 31
    2094:	98 2b       	or	r25, r24
    2096:	9e bd       	out	0x2e, r25	; 46
    2098:	ed e4       	ldi	r30, 0x4D	; 77
    209a:	f0 e0       	ldi	r31, 0x00	; 0
    209c:	80 81       	ld	r24, Z
    209e:	88 23       	and	r24, r24
    20a0:	ec f7       	brge	.-6      	; 0x209c <readOp+0x16>
    if (address & 0x80)
    20a2:	66 23       	and	r22, r22
    20a4:	34 f4       	brge	.+12     	; 0x20b2 <readOp+0x2c>
    20a6:	1e bc       	out	0x2e, r1	; 46
    20a8:	ed e4       	ldi	r30, 0x4D	; 77
    20aa:	f0 e0       	ldi	r31, 0x00	; 0
    20ac:	80 81       	ld	r24, Z
    20ae:	88 23       	and	r24, r24
    20b0:	ec f7       	brge	.-6      	; 0x20ac <readOp+0x26>
    20b2:	1e bc       	out	0x2e, r1	; 46
    20b4:	ed e4       	ldi	r30, 0x4D	; 77
    20b6:	f0 e0       	ldi	r31, 0x00	; 0
    20b8:	80 81       	ld	r24, Z
    20ba:	88 23       	and	r24, r24
    20bc:	ec f7       	brge	.-6      	; 0x20b8 <readOp+0x32>
    20be:	8e b5       	in	r24, 0x2e	; 46
    20c0:	e5 e2       	ldi	r30, 0x25	; 37
    20c2:	f0 e0       	ldi	r31, 0x00	; 0
    20c4:	90 81       	ld	r25, Z
    20c6:	94 60       	ori	r25, 0x04	; 4
    20c8:	90 83       	st	Z, r25
        spi_out(0x00);
    uint8_t result = spi_in();
    spi_disable_eth();
    return result;
}
    20ca:	08 95       	ret

000020cc <writeOp>:
    20cc:	e5 e2       	ldi	r30, 0x25	; 37
    20ce:	f0 e0       	ldi	r31, 0x00	; 0
    20d0:	90 81       	ld	r25, Z
    20d2:	9b 7f       	andi	r25, 0xFB	; 251
    20d4:	90 83       	st	Z, r25

static void writeOp (uint8_t op, uint8_t address, uint8_t data) {
    spi_enable_eth();
    spi_out(op | (address & ADDR_MASK));
    20d6:	6f 71       	andi	r22, 0x1F	; 31
    20d8:	68 2b       	or	r22, r24
    20da:	6e bd       	out	0x2e, r22	; 46
    20dc:	ed e4       	ldi	r30, 0x4D	; 77
    20de:	f0 e0       	ldi	r31, 0x00	; 0
    20e0:	80 81       	ld	r24, Z
    20e2:	88 23       	and	r24, r24
    20e4:	ec f7       	brge	.-6      	; 0x20e0 <writeOp+0x14>
    20e6:	4e bd       	out	0x2e, r20	; 46
    20e8:	ed e4       	ldi	r30, 0x4D	; 77
    20ea:	f0 e0       	ldi	r31, 0x00	; 0
    20ec:	80 81       	ld	r24, Z
    20ee:	88 23       	and	r24, r24
    20f0:	ec f7       	brge	.-6      	; 0x20ec <writeOp+0x20>
    20f2:	e5 e2       	ldi	r30, 0x25	; 37
    20f4:	f0 e0       	ldi	r31, 0x00	; 0
    20f6:	80 81       	ld	r24, Z
    20f8:	84 60       	ori	r24, 0x04	; 4
    20fa:	80 83       	st	Z, r24
    spi_out(data);
    spi_disable_eth();
}
    20fc:	08 95       	ret

000020fe <readBuf>:

static void readBuf(uint16_t len, uint8_t* data) {
    20fe:	cf 93       	push	r28
    2100:	df 93       	push	r29
    2102:	9c 01       	movw	r18, r24
    2104:	db 01       	movw	r26, r22
    2106:	e5 e2       	ldi	r30, 0x25	; 37
    2108:	f0 e0       	ldi	r31, 0x00	; 0
    210a:	80 81       	ld	r24, Z
    210c:	8b 7f       	andi	r24, 0xFB	; 251
    210e:	80 83       	st	Z, r24
    2110:	8a e3       	ldi	r24, 0x3A	; 58
    2112:	8e bd       	out	0x2e, r24	; 46
    2114:	ed e4       	ldi	r30, 0x4D	; 77
    2116:	f0 e0       	ldi	r31, 0x00	; 0
    2118:	80 81       	ld	r24, Z
    211a:	88 23       	and	r24, r24
    211c:	ec f7       	brge	.-6      	; 0x2118 <readBuf+0x1a>
    spi_enable_eth();
    spi_out(ENC28J60_READ_BUF_MEM);
    while (len--) {
    211e:	21 15       	cp	r18, r1
    2120:	31 05       	cpc	r19, r1
    2122:	79 f0       	breq	.+30     	; 0x2142 <readBuf+0x44>
    2124:	ce e4       	ldi	r28, 0x4E	; 78
    2126:	d0 e0       	ldi	r29, 0x00	; 0
    2128:	ed e4       	ldi	r30, 0x4D	; 77
    212a:	f0 e0       	ldi	r31, 0x00	; 0
    212c:	18 82       	st	Y, r1
    212e:	80 81       	ld	r24, Z
    2130:	88 23       	and	r24, r24
    2132:	ec f7       	brge	.-6      	; 0x212e <readBuf+0x30>
    2134:	88 81       	ld	r24, Y
        *data++ = spi_in();
    2136:	8c 93       	st	X, r24
    2138:	21 50       	subi	r18, 0x01	; 1
    213a:	30 40       	sbci	r19, 0x00	; 0
}

static void readBuf(uint16_t len, uint8_t* data) {
    spi_enable_eth();
    spi_out(ENC28J60_READ_BUF_MEM);
    while (len--) {
    213c:	11 f0       	breq	.+4      	; 0x2142 <readBuf+0x44>
        *data++ = spi_in();
    213e:	11 96       	adiw	r26, 0x01	; 1
    2140:	f5 cf       	rjmp	.-22     	; 0x212c <readBuf+0x2e>
    2142:	e5 e2       	ldi	r30, 0x25	; 37
    2144:	f0 e0       	ldi	r31, 0x00	; 0
    2146:	80 81       	ld	r24, Z
    2148:	84 60       	ori	r24, 0x04	; 4
    214a:	80 83       	st	Z, r24
    }
    spi_disable_eth();
}
    214c:	df 91       	pop	r29
    214e:	cf 91       	pop	r28
    2150:	08 95       	ret

00002152 <SetBank>:

static void SetBank (uint8_t address) {
    2152:	1f 93       	push	r17
    2154:	18 2f       	mov	r17, r24
    if ((address & BANK_MASK) != Enc28j60Bank) {
    2156:	28 2f       	mov	r18, r24
    2158:	30 e0       	ldi	r19, 0x00	; 0
    215a:	20 76       	andi	r18, 0x60	; 96
    215c:	30 70       	andi	r19, 0x00	; 0
    215e:	80 91 56 01 	lds	r24, 0x0156
    2162:	90 e0       	ldi	r25, 0x00	; 0
    2164:	28 17       	cp	r18, r24
    2166:	39 07       	cpc	r19, r25
    2168:	81 f0       	breq	.+32     	; 0x218a <SetBank+0x38>
        writeOp(ENC28J60_BIT_FIELD_CLR, ECON1, ECON1_BSEL1|ECON1_BSEL0);
    216a:	80 ea       	ldi	r24, 0xA0	; 160
    216c:	6f e1       	ldi	r22, 0x1F	; 31
    216e:	43 e0       	ldi	r20, 0x03	; 3
    2170:	0e 94 66 10 	call	0x20cc	; 0x20cc <writeOp>
        Enc28j60Bank = address & BANK_MASK;
    2174:	41 2f       	mov	r20, r17
    2176:	40 76       	andi	r20, 0x60	; 96
    2178:	40 93 56 01 	sts	0x0156, r20
        writeOp(ENC28J60_BIT_FIELD_SET, ECON1, Enc28j60Bank>>5);
    217c:	42 95       	swap	r20
    217e:	46 95       	lsr	r20
    2180:	47 70       	andi	r20, 0x07	; 7
    2182:	80 e8       	ldi	r24, 0x80	; 128
    2184:	6f e1       	ldi	r22, 0x1F	; 31
    2186:	0e 94 66 10 	call	0x20cc	; 0x20cc <writeOp>
    }
}
    218a:	1f 91       	pop	r17
    218c:	08 95       	ret

0000218e <readRegByte>:

static uint8_t readRegByte (uint8_t address) {
    218e:	1f 93       	push	r17
    2190:	18 2f       	mov	r17, r24
    SetBank(address);
    2192:	0e 94 a9 10 	call	0x2152	; 0x2152 <SetBank>
    return readOp(ENC28J60_READ_CTRL_REG, address);
    2196:	80 e0       	ldi	r24, 0x00	; 0
    2198:	61 2f       	mov	r22, r17
    219a:	0e 94 43 10 	call	0x2086	; 0x2086 <readOp>
}
    219e:	1f 91       	pop	r17
    21a0:	08 95       	ret

000021a2 <writeRegByte>:
static uint16_t readReg(uint8_t address) {
	return readRegByte(address) + (readRegByte(address+1) << 8);
}
#endif

static void writeRegByte (uint8_t address, uint8_t data) {
    21a2:	0f 93       	push	r16
    21a4:	1f 93       	push	r17
    21a6:	18 2f       	mov	r17, r24
    21a8:	06 2f       	mov	r16, r22
    SetBank(address);
    21aa:	0e 94 a9 10 	call	0x2152	; 0x2152 <SetBank>
    writeOp(ENC28J60_WRITE_CTRL_REG, address, data);
    21ae:	80 e4       	ldi	r24, 0x40	; 64
    21b0:	61 2f       	mov	r22, r17
    21b2:	40 2f       	mov	r20, r16
    21b4:	0e 94 66 10 	call	0x20cc	; 0x20cc <writeOp>
}
    21b8:	1f 91       	pop	r17
    21ba:	0f 91       	pop	r16
    21bc:	08 95       	ret

000021be <writeReg>:

static void writeReg(uint8_t address, uint16_t data) {
    21be:	0f 93       	push	r16
    21c0:	1f 93       	push	r17
    21c2:	18 2f       	mov	r17, r24
    21c4:	07 2f       	mov	r16, r23
    writeRegByte(address, data);
    21c6:	0e 94 d1 10 	call	0x21a2	; 0x21a2 <writeRegByte>
    writeRegByte(address + 1, data >> 8);
    21ca:	81 2f       	mov	r24, r17
    21cc:	8f 5f       	subi	r24, 0xFF	; 255
    21ce:	60 2f       	mov	r22, r16
    21d0:	0e 94 d1 10 	call	0x21a2	; 0x21a2 <writeRegByte>
}
    21d4:	1f 91       	pop	r17
    21d6:	0f 91       	pop	r16
    21d8:	08 95       	ret

000021da <writePhy>:
        ;
    writeRegByte(MICMD, 0x00);
    return readRegByte(MIRD+1);
}

static void writePhy (uint8_t address, uint16_t data) {
    21da:	0f 93       	push	r16
    21dc:	1f 93       	push	r17
    21de:	98 2f       	mov	r25, r24
    21e0:	8b 01       	movw	r16, r22
    writeRegByte(MIREGADR, address);
    21e2:	84 ed       	ldi	r24, 0xD4	; 212
    21e4:	69 2f       	mov	r22, r25
    21e6:	0e 94 d1 10 	call	0x21a2	; 0x21a2 <writeRegByte>
    writeReg(MIWR, data);
    21ea:	86 ed       	ldi	r24, 0xD6	; 214
    21ec:	b8 01       	movw	r22, r16
    21ee:	0e 94 df 10 	call	0x21be	; 0x21be <writeReg>
    while (readRegByte(MISTAT) & MISTAT_BUSY)
    21f2:	8a ee       	ldi	r24, 0xEA	; 234
    21f4:	0e 94 c7 10 	call	0x218e	; 0x218e <readRegByte>
    21f8:	80 fd       	sbrc	r24, 0
    21fa:	fb cf       	rjmp	.-10     	; 0x21f2 <writePhy+0x18>
        ;
}
    21fc:	1f 91       	pop	r17
    21fe:	0f 91       	pop	r16
    2200:	08 95       	ret

00002202 <enc28j60_exit>:

// ---------- exit ----------

static void enc28j60_exit(void)
{
  SetBank(ECON1);
    2202:	8f e1       	ldi	r24, 0x1F	; 31
    2204:	0e 94 a9 10 	call	0x2152	; 0x2152 <SetBank>
  writeOp(ENC28J60_BIT_FIELD_CLR, ECON1, ECON1_RXEN);
    2208:	80 ea       	ldi	r24, 0xA0	; 160
    220a:	6f e1       	ldi	r22, 0x1F	; 31
    220c:	44 e0       	ldi	r20, 0x04	; 4
    220e:	0e 94 66 10 	call	0x20cc	; 0x20cc <writeOp>
}
    2212:	08 95       	ret

00002214 <enc28j60_control>:

// ---------- control ----------

static uint8_t enc28j60_control(uint8_t control_id, uint8_t value)
{
  switch(control_id) {
    2214:	88 23       	and	r24, r24
    2216:	11 f0       	breq	.+4      	; 0x221c <enc28j60_control+0x8>
    2218:	81 e0       	ldi	r24, 0x01	; 1
    221a:	08 95       	ret
    case PIO_CONTROL_FLOW:
      {
        uint8_t flag;
        if(is_full_duplex) {
    221c:	80 91 59 01 	lds	r24, 0x0159
    2220:	88 23       	and	r24, r24
    2222:	31 f0       	breq	.+12     	; 0x2230 <enc28j60_control+0x1c>
          flag = value ? 2 : 3;
    2224:	66 23       	and	r22, r22
    2226:	11 f4       	brne	.+4      	; 0x222c <enc28j60_control+0x18>
    2228:	63 e0       	ldi	r22, 0x03	; 3
    222a:	04 c0       	rjmp	.+8      	; 0x2234 <enc28j60_control+0x20>
    222c:	62 e0       	ldi	r22, 0x02	; 2
    222e:	02 c0       	rjmp	.+4      	; 0x2234 <enc28j60_control+0x20>
        } else {
          flag = value ? 1 : 0;
    2230:	61 11       	cpse	r22, r1
    2232:	61 e0       	ldi	r22, 0x01	; 1
        }
        writeRegByte(EFLOCON, flag);
    2234:	87 e7       	ldi	r24, 0x77	; 119
    2236:	0e 94 d1 10 	call	0x21a2	; 0x21a2 <writeRegByte>
    223a:	80 e0       	ldi	r24, 0x00	; 0
        return PIO_OK;
      }
    default:
      return PIO_NOT_FOUND;
  }
}
    223c:	08 95       	ret

0000223e <enc28j60_status>:

// ---------- status ----------

static uint8_t enc28j60_status(uint8_t status_id, uint8_t *value)
{
    223e:	cf 93       	push	r28
    2240:	df 93       	push	r29
    2242:	eb 01       	movw	r28, r22
  switch(status_id) {
    2244:	88 23       	and	r24, r24
    2246:	19 f0       	breq	.+6      	; 0x224e <enc28j60_status+0x10>
    2248:	81 30       	cpi	r24, 0x01	; 1
    224a:	19 f5       	brne	.+70     	; 0x2292 <enc28j60_status+0x54>
    224c:	05 c0       	rjmp	.+10     	; 0x2258 <enc28j60_status+0x1a>
    case PIO_STATUS_VERSION:
      *value = rev;
    224e:	80 91 5a 01 	lds	r24, 0x015A
    2252:	88 83       	st	Y, r24
    2254:	80 e0       	ldi	r24, 0x00	; 0
    2256:	1f c0       	rjmp	.+62     	; 0x2296 <enc28j60_status+0x58>
    writeRegByte(address, data);
    writeRegByte(address + 1, data >> 8);
}

static uint16_t readPhyByte (uint8_t address) {
    writeRegByte(MIREGADR, address);
    2258:	84 ed       	ldi	r24, 0xD4	; 212
    225a:	61 e1       	ldi	r22, 0x11	; 17
    225c:	0e 94 d1 10 	call	0x21a2	; 0x21a2 <writeRegByte>
    writeRegByte(MICMD, MICMD_MIIRD);
    2260:	82 ed       	ldi	r24, 0xD2	; 210
    2262:	61 e0       	ldi	r22, 0x01	; 1
    2264:	0e 94 d1 10 	call	0x21a2	; 0x21a2 <writeRegByte>
    while (readRegByte(MISTAT) & MISTAT_BUSY)
    2268:	8a ee       	ldi	r24, 0xEA	; 234
    226a:	0e 94 c7 10 	call	0x218e	; 0x218e <readRegByte>
    226e:	80 fd       	sbrc	r24, 0
    2270:	fb cf       	rjmp	.-10     	; 0x2268 <enc28j60_status+0x2a>
        ;
    writeRegByte(MICMD, 0x00);
    2272:	82 ed       	ldi	r24, 0xD2	; 210
    2274:	60 e0       	ldi	r22, 0x00	; 0
    2276:	0e 94 d1 10 	call	0x21a2	; 0x21a2 <writeRegByte>
    return readRegByte(MIRD+1);
    227a:	89 ed       	ldi	r24, 0xD9	; 217
    227c:	0e 94 c7 10 	call	0x218e	; 0x218e <readRegByte>
  switch(status_id) {
    case PIO_STATUS_VERSION:
      *value = rev;
      return PIO_OK;
    case PIO_STATUS_LINK_UP:
      *value = (readPhyByte(PHSTAT2) >> 2) & 1;
    2280:	90 e0       	ldi	r25, 0x00	; 0
    2282:	96 95       	lsr	r25
    2284:	87 95       	ror	r24
    2286:	96 95       	lsr	r25
    2288:	87 95       	ror	r24
    228a:	81 70       	andi	r24, 0x01	; 1
    228c:	88 83       	st	Y, r24
    228e:	80 e0       	ldi	r24, 0x00	; 0
    2290:	02 c0       	rjmp	.+4      	; 0x2296 <enc28j60_status+0x58>
      return PIO_OK;
    default:
      *value = 0;
    2292:	18 82       	st	Y, r1
    2294:	81 e0       	ldi	r24, 0x01	; 1
      return PIO_NOT_FOUND;
  }
}
    2296:	df 91       	pop	r29
    2298:	cf 91       	pop	r28
    229a:	08 95       	ret

0000229c <enc28j60_send>:
#endif

// ---------- send ----------

static uint8_t enc28j60_send(const uint8_t *data, uint16_t size)
{
    229c:	0f 93       	push	r16
    229e:	1f 93       	push	r17
    22a0:	cf 93       	push	r28
    22a2:	df 93       	push	r29
    22a4:	ec 01       	movw	r28, r24
    22a6:	8b 01       	movw	r16, r22
  // prepare tx buffer write
  writeReg(EWRPT, TXSTART_INIT);
    22a8:	82 e0       	ldi	r24, 0x02	; 2
    22aa:	60 e0       	ldi	r22, 0x00	; 0
    22ac:	7a e1       	ldi	r23, 0x1A	; 26
    22ae:	0e 94 df 10 	call	0x21be	; 0x21be <writeReg>
  writeOp(ENC28J60_WRITE_BUF_MEM, 0, 0x00);
    22b2:	8a e7       	ldi	r24, 0x7A	; 122
    22b4:	60 e0       	ldi	r22, 0x00	; 0
    22b6:	40 e0       	ldi	r20, 0x00	; 0
    22b8:	0e 94 66 10 	call	0x20cc	; 0x20cc <writeOp>
    22bc:	e5 e2       	ldi	r30, 0x25	; 37
    22be:	f0 e0       	ldi	r31, 0x00	; 0
    22c0:	80 81       	ld	r24, Z
    22c2:	8b 7f       	andi	r24, 0xFB	; 251
    22c4:	80 83       	st	Z, r24
    22c6:	8a e7       	ldi	r24, 0x7A	; 122
    22c8:	8e bd       	out	0x2e, r24	; 46
    22ca:	ed e4       	ldi	r30, 0x4D	; 77
    22cc:	f0 e0       	ldi	r31, 0x00	; 0
    22ce:	80 81       	ld	r24, Z
    22d0:	88 23       	and	r24, r24
    22d2:	ec f7       	brge	.-6      	; 0x22ce <enc28j60_send+0x32>
    22d4:	98 01       	movw	r18, r16
    22d6:	ae e4       	ldi	r26, 0x4E	; 78
    22d8:	b0 e0       	ldi	r27, 0x00	; 0
    22da:	ed e4       	ldi	r30, 0x4D	; 77
    22dc:	f0 e0       	ldi	r31, 0x00	; 0
    22de:	08 c0       	rjmp	.+16     	; 0x22f0 <enc28j60_send+0x54>
  // fill buffer
  uint16_t num = size;
  spi_enable_eth(),
  spi_out(ENC28J60_WRITE_BUF_MEM);
  while(num--) {
    spi_out(*data++);
    22e0:	88 81       	ld	r24, Y
    22e2:	8c 93       	st	X, r24
    22e4:	80 81       	ld	r24, Z
    22e6:	88 23       	and	r24, r24
    22e8:	ec f7       	brge	.-6      	; 0x22e4 <enc28j60_send+0x48>
    22ea:	21 96       	adiw	r28, 0x01	; 1
    22ec:	21 50       	subi	r18, 0x01	; 1
    22ee:	30 40       	sbci	r19, 0x00	; 0

  // fill buffer
  uint16_t num = size;
  spi_enable_eth(),
  spi_out(ENC28J60_WRITE_BUF_MEM);
  while(num--) {
    22f0:	21 15       	cp	r18, r1
    22f2:	31 05       	cpc	r19, r1
    22f4:	a9 f7       	brne	.-22     	; 0x22e0 <enc28j60_send+0x44>
    22f6:	e5 e2       	ldi	r30, 0x25	; 37
    22f8:	f0 e0       	ldi	r31, 0x00	; 0
    22fa:	80 81       	ld	r24, Z
    22fc:	84 60       	ori	r24, 0x04	; 4
    22fe:	80 83       	st	Z, r24
    2300:	0f c0       	rjmp	.+30     	; 0x2320 <enc28j60_send+0x84>
  }
  spi_disable_eth();

  // wait for tx ready
  while (readOp(ENC28J60_READ_CTRL_REG, ECON1) & ECON1_TXRTS)
      if (readRegByte(EIR) & EIR_TXERIF) {
    2302:	8c e1       	ldi	r24, 0x1C	; 28
    2304:	0e 94 c7 10 	call	0x218e	; 0x218e <readRegByte>
    2308:	81 ff       	sbrs	r24, 1
    230a:	0a c0       	rjmp	.+20     	; 0x2320 <enc28j60_send+0x84>
          writeOp(ENC28J60_BIT_FIELD_SET, ECON1, ECON1_TXRST);
    230c:	80 e8       	ldi	r24, 0x80	; 128
    230e:	6f e1       	ldi	r22, 0x1F	; 31
    2310:	40 e8       	ldi	r20, 0x80	; 128
    2312:	0e 94 66 10 	call	0x20cc	; 0x20cc <writeOp>
          writeOp(ENC28J60_BIT_FIELD_CLR, ECON1, ECON1_TXRST);
    2316:	80 ea       	ldi	r24, 0xA0	; 160
    2318:	6f e1       	ldi	r22, 0x1F	; 31
    231a:	40 e8       	ldi	r20, 0x80	; 128
    231c:	0e 94 66 10 	call	0x20cc	; 0x20cc <writeOp>
    spi_out(*data++);
  }
  spi_disable_eth();

  // wait for tx ready
  while (readOp(ENC28J60_READ_CTRL_REG, ECON1) & ECON1_TXRTS)
    2320:	80 e0       	ldi	r24, 0x00	; 0
    2322:	6f e1       	ldi	r22, 0x1F	; 31
    2324:	0e 94 43 10 	call	0x2086	; 0x2086 <readOp>
    2328:	83 fd       	sbrc	r24, 3
    232a:	eb cf       	rjmp	.-42     	; 0x2302 <enc28j60_send+0x66>
          writeOp(ENC28J60_BIT_FIELD_SET, ECON1, ECON1_TXRST);
          writeOp(ENC28J60_BIT_FIELD_CLR, ECON1, ECON1_TXRST);
      }

  // initiate send
  writeReg(ETXND, TXSTART_INIT+size);
    232c:	b8 01       	movw	r22, r16
    232e:	60 50       	subi	r22, 0x00	; 0
    2330:	76 4e       	sbci	r23, 0xE6	; 230
    2332:	86 e0       	ldi	r24, 0x06	; 6
    2334:	0e 94 df 10 	call	0x21be	; 0x21be <writeReg>
  writeOp(ENC28J60_BIT_FIELD_SET, ECON1, ECON1_TXRTS);
    2338:	80 e8       	ldi	r24, 0x80	; 128
    233a:	6f e1       	ldi	r22, 0x1F	; 31
    233c:	48 e0       	ldi	r20, 0x08	; 8
    233e:	0e 94 66 10 	call	0x20cc	; 0x20cc <writeOp>
  return PIO_OK;
}
    2342:	80 e0       	ldi	r24, 0x00	; 0
    2344:	df 91       	pop	r29
    2346:	cf 91       	pop	r28
    2348:	1f 91       	pop	r17
    234a:	0f 91       	pop	r16
    234c:	08 95       	ret

0000234e <enc28j60_has_recv>:

// ---------- has_recv ----------

static uint8_t enc28j60_has_recv(void)
{
  return readRegByte(EPKTCNT);
    234e:	89 e3       	ldi	r24, 0x39	; 57
    2350:	0e 94 c7 10 	call	0x218e	; 0x218e <readRegByte>
}
    2354:	08 95       	ret

00002356 <enc28j60_init>:
{
  writeRegByte(ERXFCON, ERXFCON_UCEN|ERXFCON_CRCEN/*|ERXFCON_PMEN*/);
}

static uint8_t enc28j60_init(const uint8_t macaddr[6], uint8_t flags)
{
    2356:	ff 92       	push	r15
    2358:	0f 93       	push	r16
    235a:	1f 93       	push	r17
    235c:	cf 93       	push	r28
    235e:	df 93       	push	r29
    2360:	8c 01       	movw	r16, r24
    2362:	f6 2e       	mov	r15, r22
  spi_init();
    2364:	0e 94 0a 13 	call	0x2614	; 0x2614 <spi_init>
    2368:	e5 e2       	ldi	r30, 0x25	; 37
    236a:	f0 e0       	ldi	r31, 0x00	; 0
    236c:	80 81       	ld	r24, Z
    236e:	84 60       	ori	r24, 0x04	; 4
    2370:	80 83       	st	Z, r24
  spi_disable_eth();

  is_full_duplex = (flags & PIO_INIT_FULL_DUPLEX) == PIO_INIT_FULL_DUPLEX;
    2372:	8f 2d       	mov	r24, r15
    2374:	81 70       	andi	r24, 0x01	; 1
    2376:	80 93 59 01 	sts	0x0159, r24

  // soft reset cpu
  writeOp(ENC28J60_SOFT_RESET, 0, ENC28J60_SOFT_RESET);
    237a:	8f ef       	ldi	r24, 0xFF	; 255
    237c:	60 e0       	ldi	r22, 0x00	; 0
    237e:	4f ef       	ldi	r20, 0xFF	; 255
    2380:	0e 94 66 10 	call	0x20cc	; 0x20cc <writeOp>
  timer_delay_100us(20); // errata B7/2
    2384:	84 e1       	ldi	r24, 0x14	; 20
    2386:	90 e0       	ldi	r25, 0x00	; 0
    2388:	0e 94 87 02 	call	0x50e	; 0x50e <timer_delay_100us>
    238c:	c0 e0       	ldi	r28, 0x00	; 0
    238e:	d0 e0       	ldi	r29, 0x00	; 0
    2390:	07 c0       	rjmp	.+14     	; 0x23a0 <enc28j60_init+0x4a>

  // wait or error
  uint16_t count = 0;
  while (!readOp(ENC28J60_READ_CTRL_REG, ESTAT) & ESTAT_CLKRDY) {
    count ++;
    2392:	21 96       	adiw	r28, 0x01	; 1
    if(count == 0xfff) {
    2394:	8f e0       	ldi	r24, 0x0F	; 15
    2396:	cf 3f       	cpi	r28, 0xFF	; 255
    2398:	d8 07       	cpc	r29, r24
    239a:	11 f4       	brne	.+4      	; 0x23a0 <enc28j60_init+0x4a>
    239c:	81 e0       	ldi	r24, 0x01	; 1
    239e:	ba c0       	rjmp	.+372    	; 0x2514 <enc28j60_init+0x1be>
  writeOp(ENC28J60_SOFT_RESET, 0, ENC28J60_SOFT_RESET);
  timer_delay_100us(20); // errata B7/2

  // wait or error
  uint16_t count = 0;
  while (!readOp(ENC28J60_READ_CTRL_REG, ESTAT) & ESTAT_CLKRDY) {
    23a0:	80 e0       	ldi	r24, 0x00	; 0
    23a2:	6d e1       	ldi	r22, 0x1D	; 29
    23a4:	0e 94 43 10 	call	0x2086	; 0x2086 <readOp>
    23a8:	88 23       	and	r24, r24
    23aa:	99 f3       	breq	.-26     	; 0x2392 <enc28j60_init+0x3c>
      return PIO_NOT_FOUND;
    }
  }

  // set packet pointers
  gNextPacketPtr = RXSTART_INIT;
    23ac:	10 92 58 01 	sts	0x0158, r1
    23b0:	10 92 57 01 	sts	0x0157, r1
  writeReg(ERXST, RXSTART_INIT);
    23b4:	88 e0       	ldi	r24, 0x08	; 8
    23b6:	60 e0       	ldi	r22, 0x00	; 0
    23b8:	70 e0       	ldi	r23, 0x00	; 0
    23ba:	0e 94 df 10 	call	0x21be	; 0x21be <writeReg>
  writeReg(ERXRDPT, RXSTART_INIT);
    23be:	8c e0       	ldi	r24, 0x0C	; 12
    23c0:	60 e0       	ldi	r22, 0x00	; 0
    23c2:	70 e0       	ldi	r23, 0x00	; 0
    23c4:	0e 94 df 10 	call	0x21be	; 0x21be <writeReg>
  writeReg(ERXND, RXSTOP_INIT);
    23c8:	8a e0       	ldi	r24, 0x0A	; 10
    23ca:	6f ef       	ldi	r22, 0xFF	; 255
    23cc:	79 e1       	ldi	r23, 0x19	; 25
    23ce:	0e 94 df 10 	call	0x21be	; 0x21be <writeReg>
  writeReg(ETXST, TXSTART_INIT);
    23d2:	84 e0       	ldi	r24, 0x04	; 4
    23d4:	60 e0       	ldi	r22, 0x00	; 0
    23d6:	7a e1       	ldi	r23, 0x1A	; 26
    23d8:	0e 94 df 10 	call	0x21be	; 0x21be <writeReg>
  writeReg(ETXND, TXSTOP_INIT);
    23dc:	86 e0       	ldi	r24, 0x06	; 6
    23de:	6f ef       	ldi	r22, 0xFF	; 255
    23e0:	7f e1       	ldi	r23, 0x1F	; 31
    23e2:	0e 94 df 10 	call	0x21be	; 0x21be <writeReg>

  // set packet filter
  if(flags & PIO_INIT_BROAD_CAST) {
    23e6:	f2 fe       	sbrs	r15, 2
    23e8:	05 c0       	rjmp	.+10     	; 0x23f4 <enc28j60_init+0x9e>

// Functions to enable/disable broadcast filter bits
// With the bit set, broadcast packets are filtered.
static inline void enc28j60_enable_broadcast ( void )
{
  writeRegByte(ERXFCON, ERXFCON_UCEN|ERXFCON_CRCEN/*|ERXFCON_PMEN*/|ERXFCON_BCEN);
    23ea:	88 e3       	ldi	r24, 0x38	; 56
    23ec:	61 ea       	ldi	r22, 0xA1	; 161
    23ee:	0e 94 d1 10 	call	0x21a2	; 0x21a2 <writeRegByte>
    23f2:	04 c0       	rjmp	.+8      	; 0x23fc <enc28j60_init+0xa6>
}

static inline void enc28j60_disable_broadcast ( void )
{
  writeRegByte(ERXFCON, ERXFCON_UCEN|ERXFCON_CRCEN/*|ERXFCON_PMEN*/);
    23f4:	88 e3       	ldi	r24, 0x38	; 56
    23f6:	60 ea       	ldi	r22, 0xA0	; 160
    23f8:	0e 94 d1 10 	call	0x21a2	; 0x21a2 <writeRegByte>
  } else {
    enc28j60_disable_broadcast(); // change to add ERXFCON_BCEN recommended by epam
  }

  // BIST pattern generator?
  writeReg(EPMM0, 0x303f);
    23fc:	88 e2       	ldi	r24, 0x28	; 40
    23fe:	6f e3       	ldi	r22, 0x3F	; 63
    2400:	70 e3       	ldi	r23, 0x30	; 48
    2402:	0e 94 df 10 	call	0x21be	; 0x21be <writeReg>
  writeReg(EPMCS, 0xf7f9);
    2406:	80 e3       	ldi	r24, 0x30	; 48
    2408:	69 ef       	ldi	r22, 0xF9	; 249
    240a:	77 ef       	ldi	r23, 0xF7	; 247
    240c:	0e 94 df 10 	call	0x21be	; 0x21be <writeReg>

  // MAC init (with flow control)
  writeRegByte(MACON1, MACON1_MARXEN|MACON1_TXPAUS|MACON1_RXPAUS);
    2410:	80 ec       	ldi	r24, 0xC0	; 192
    2412:	6d e0       	ldi	r22, 0x0D	; 13
    2414:	0e 94 d1 10 	call	0x21a2	; 0x21a2 <writeRegByte>
  writeRegByte(MACON2, 0x00);
    2418:	81 ec       	ldi	r24, 0xC1	; 193
    241a:	60 e0       	ldi	r22, 0x00	; 0
    241c:	0e 94 d1 10 	call	0x21a2	; 0x21a2 <writeRegByte>
  uint8_t mac3val = MACON3_PADCFG0|MACON3_TXCRCEN|MACON3_FRMLNEN;
  if(is_full_duplex) {
    2420:	80 91 59 01 	lds	r24, 0x0159
    2424:	88 23       	and	r24, r24
    2426:	11 f0       	breq	.+4      	; 0x242c <enc28j60_init+0xd6>
    2428:	63 e3       	ldi	r22, 0x33	; 51
    242a:	01 c0       	rjmp	.+2      	; 0x242e <enc28j60_init+0xd8>
    242c:	62 e3       	ldi	r22, 0x32	; 50
    mac3val |= MACON3_FULDPX;
  }
  writeRegByte(MACON3, mac3val);
    242e:	82 ec       	ldi	r24, 0xC2	; 194
    2430:	0e 94 d1 10 	call	0x21a2	; 0x21a2 <writeRegByte>

  if(is_full_duplex) {
    2434:	80 91 59 01 	lds	r24, 0x0159
    2438:	88 23       	and	r24, r24
    243a:	51 f0       	breq	.+20     	; 0x2450 <enc28j60_init+0xfa>
    writeRegByte(MABBIPG, 0x15);
    243c:	84 ec       	ldi	r24, 0xC4	; 196
    243e:	65 e1       	ldi	r22, 0x15	; 21
    2440:	0e 94 d1 10 	call	0x21a2	; 0x21a2 <writeRegByte>
    writeReg(MAIPG, 0x0012);
    2444:	86 ec       	ldi	r24, 0xC6	; 198
    2446:	62 e1       	ldi	r22, 0x12	; 18
    2448:	70 e0       	ldi	r23, 0x00	; 0
    244a:	0e 94 df 10 	call	0x21be	; 0x21be <writeReg>
    244e:	09 c0       	rjmp	.+18     	; 0x2462 <enc28j60_init+0x10c>
  } else {
    writeRegByte(MABBIPG, 0x12);
    2450:	84 ec       	ldi	r24, 0xC4	; 196
    2452:	62 e1       	ldi	r22, 0x12	; 18
    2454:	0e 94 d1 10 	call	0x21a2	; 0x21a2 <writeRegByte>
    writeReg(MAIPG, 0x0C12);
    2458:	86 ec       	ldi	r24, 0xC6	; 198
    245a:	62 e1       	ldi	r22, 0x12	; 18
    245c:	7c e0       	ldi	r23, 0x0C	; 12
    245e:	0e 94 df 10 	call	0x21be	; 0x21be <writeReg>
  }
  writeReg(MAMXFL, MAX_FRAMELEN);
    2462:	8a ec       	ldi	r24, 0xCA	; 202
    2464:	6e ee       	ldi	r22, 0xEE	; 238
    2466:	75 e0       	ldi	r23, 0x05	; 5
    2468:	0e 94 df 10 	call	0x21be	; 0x21be <writeReg>

  // PHY init
  if(is_full_duplex) {
    246c:	80 91 59 01 	lds	r24, 0x0159
    2470:	88 23       	and	r24, r24
    2472:	59 f0       	breq	.+22     	; 0x248a <enc28j60_init+0x134>
    writePhy(PHCON1, PHCON1_PDPXMD);
    2474:	80 e0       	ldi	r24, 0x00	; 0
    2476:	60 e0       	ldi	r22, 0x00	; 0
    2478:	71 e0       	ldi	r23, 0x01	; 1
    247a:	0e 94 ed 10 	call	0x21da	; 0x21da <writePhy>
    writePhy(PHCON2, 0);
    247e:	80 e1       	ldi	r24, 0x10	; 16
    2480:	60 e0       	ldi	r22, 0x00	; 0
    2482:	70 e0       	ldi	r23, 0x00	; 0
    2484:	0e 94 ed 10 	call	0x21da	; 0x21da <writePhy>
    2488:	0a c0       	rjmp	.+20     	; 0x249e <enc28j60_init+0x148>
  } else {
    writePhy(PHCON1, 0);
    248a:	80 e0       	ldi	r24, 0x00	; 0
    248c:	60 e0       	ldi	r22, 0x00	; 0
    248e:	70 e0       	ldi	r23, 0x00	; 0
    2490:	0e 94 ed 10 	call	0x21da	; 0x21da <writePhy>
    writePhy(PHCON2, PHCON2_HDLDIS);
    2494:	80 e1       	ldi	r24, 0x10	; 16
    2496:	60 e0       	ldi	r22, 0x00	; 0
    2498:	71 e0       	ldi	r23, 0x01	; 1
    249a:	0e 94 ed 10 	call	0x21da	; 0x21da <writePhy>
  }

  // prepare flow control
  writeReg(EPAUS, 20 * 100); // 100ms
    249e:	88 e7       	ldi	r24, 0x78	; 120
    24a0:	60 ed       	ldi	r22, 0xD0	; 208
    24a2:	77 e0       	ldi	r23, 0x07	; 7
    24a4:	0e 94 df 10 	call	0x21be	; 0x21be <writeReg>

  // return rev
  rev = readRegByte(EREVID);
    24a8:	82 e7       	ldi	r24, 0x72	; 114
    24aa:	0e 94 c7 10 	call	0x218e	; 0x218e <readRegByte>
    24ae:	80 93 5a 01 	sts	0x015A, r24
  // microchip forgot to step the number on the silcon when they
  // released the revision B7. 6 is now rev B7. We still have
  // to see what they do when they release B8. At the moment
  // there is no B8 out yet
  if (rev > 5) ++rev;
    24b2:	86 30       	cpi	r24, 0x06	; 6
    24b4:	18 f0       	brcs	.+6      	; 0x24bc <enc28j60_init+0x166>
    24b6:	8f 5f       	subi	r24, 0xFF	; 255
    24b8:	80 93 5a 01 	sts	0x015A, r24

  // set mac
  writeRegByte(MAADR5, macaddr[0]);
    24bc:	84 ee       	ldi	r24, 0xE4	; 228
    24be:	f8 01       	movw	r30, r16
    24c0:	60 81       	ld	r22, Z
    24c2:	0e 94 d1 10 	call	0x21a2	; 0x21a2 <writeRegByte>
  writeRegByte(MAADR4, macaddr[1]);
    24c6:	85 ee       	ldi	r24, 0xE5	; 229
    24c8:	f8 01       	movw	r30, r16
    24ca:	61 81       	ldd	r22, Z+1	; 0x01
    24cc:	0e 94 d1 10 	call	0x21a2	; 0x21a2 <writeRegByte>
  writeRegByte(MAADR3, macaddr[2]);
    24d0:	82 ee       	ldi	r24, 0xE2	; 226
    24d2:	f8 01       	movw	r30, r16
    24d4:	62 81       	ldd	r22, Z+2	; 0x02
    24d6:	0e 94 d1 10 	call	0x21a2	; 0x21a2 <writeRegByte>
  writeRegByte(MAADR2, macaddr[3]);
    24da:	83 ee       	ldi	r24, 0xE3	; 227
    24dc:	f8 01       	movw	r30, r16
    24de:	63 81       	ldd	r22, Z+3	; 0x03
    24e0:	0e 94 d1 10 	call	0x21a2	; 0x21a2 <writeRegByte>
  writeRegByte(MAADR1, macaddr[4]);
    24e4:	80 ee       	ldi	r24, 0xE0	; 224
    24e6:	f8 01       	movw	r30, r16
    24e8:	64 81       	ldd	r22, Z+4	; 0x04
    24ea:	0e 94 d1 10 	call	0x21a2	; 0x21a2 <writeRegByte>
  writeRegByte(MAADR0, macaddr[5]);
    24ee:	81 ee       	ldi	r24, 0xE1	; 225
    24f0:	f8 01       	movw	r30, r16
    24f2:	65 81       	ldd	r22, Z+5	; 0x05
    24f4:	0e 94 d1 10 	call	0x21a2	; 0x21a2 <writeRegByte>

  SetBank(ECON1);
    24f8:	8f e1       	ldi	r24, 0x1F	; 31
    24fa:	0e 94 a9 10 	call	0x2152	; 0x2152 <SetBank>
  writeOp(ENC28J60_BIT_FIELD_SET, EIE, EIE_INTIE|EIE_PKTIE);
    24fe:	80 e8       	ldi	r24, 0x80	; 128
    2500:	6b e1       	ldi	r22, 0x1B	; 27
    2502:	40 ec       	ldi	r20, 0xC0	; 192
    2504:	0e 94 66 10 	call	0x20cc	; 0x20cc <writeOp>
  writeOp(ENC28J60_BIT_FIELD_SET, ECON1, ECON1_RXEN);
    2508:	80 e8       	ldi	r24, 0x80	; 128
    250a:	6f e1       	ldi	r22, 0x1F	; 31
    250c:	44 e0       	ldi	r20, 0x04	; 4
    250e:	0e 94 66 10 	call	0x20cc	; 0x20cc <writeOp>
    2512:	80 e0       	ldi	r24, 0x00	; 0

  return PIO_OK;
}
    2514:	df 91       	pop	r29
    2516:	cf 91       	pop	r28
    2518:	1f 91       	pop	r17
    251a:	0f 91       	pop	r16
    251c:	ff 90       	pop	r15
    251e:	08 95       	ret

00002520 <enc28j60_recv>:
  *got_size = header.byteCount - 4; //remove the CRC count
  return header.status;
}

static uint8_t enc28j60_recv(uint8_t *data, uint16_t max_size, uint16_t *got_size)
{
    2520:	af 92       	push	r10
    2522:	bf 92       	push	r11
    2524:	cf 92       	push	r12
    2526:	df 92       	push	r13
    2528:	ef 92       	push	r14
    252a:	ff 92       	push	r15
    252c:	0f 93       	push	r16
    252e:	1f 93       	push	r17
    2530:	df 93       	push	r29
    2532:	cf 93       	push	r28
    2534:	00 d0       	rcall	.+0      	; 0x2536 <enc28j60_recv+0x16>
    2536:	00 d0       	rcall	.+0      	; 0x2538 <enc28j60_recv+0x18>
    2538:	00 d0       	rcall	.+0      	; 0x253a <enc28j60_recv+0x1a>
    253a:	cd b7       	in	r28, 0x3d	; 61
    253c:	de b7       	in	r29, 0x3e	; 62
    253e:	5c 01       	movw	r10, r24
    2540:	6b 01       	movw	r12, r22
    2542:	8a 01       	movw	r16, r20
  writeReg(ERDPT, gNextPacketPtr);
    2544:	60 91 57 01 	lds	r22, 0x0157
    2548:	70 91 58 01 	lds	r23, 0x0158
    254c:	80 e0       	ldi	r24, 0x00	; 0
    254e:	0e 94 df 10 	call	0x21be	; 0x21be <writeReg>
      uint16_t nextPacket;
      uint16_t byteCount;
      uint16_t status;
  } header;

  readBuf(sizeof header, (uint8_t*) &header);
    2552:	86 e0       	ldi	r24, 0x06	; 6
    2554:	90 e0       	ldi	r25, 0x00	; 0
    2556:	be 01       	movw	r22, r28
    2558:	6f 5f       	subi	r22, 0xFF	; 255
    255a:	7f 4f       	sbci	r23, 0xFF	; 255
    255c:	0e 94 7f 10 	call	0x20fe	; 0x20fe <readBuf>

  gNextPacketPtr  = header.nextPacket;
    2560:	e9 80       	ldd	r14, Y+1	; 0x01
    2562:	fa 80       	ldd	r15, Y+2	; 0x02
    2564:	f0 92 58 01 	sts	0x0158, r15
    2568:	e0 92 57 01 	sts	0x0157, r14
  *got_size = header.byteCount - 4; //remove the CRC count
    256c:	8b 81       	ldd	r24, Y+3	; 0x03
    256e:	9c 81       	ldd	r25, Y+4	; 0x04
    2570:	9c 01       	movw	r18, r24
    2572:	24 50       	subi	r18, 0x04	; 4
    2574:	30 40       	sbci	r19, 0x00	; 0
    2576:	f8 01       	movw	r30, r16
    2578:	31 83       	std	Z+1, r19	; 0x01
    257a:	20 83       	st	Z, r18

  // read chip's packet header
  uint8_t status = read_hdr(got_size);

  // was a receive error?
  if ((status & 0x80)==0) {
    257c:	8d 81       	ldd	r24, Y+5	; 0x05
    257e:	88 23       	and	r24, r24
    2580:	bc f0       	brlt	.+46     	; 0x25b0 <enc28j60_recv+0x90>

// ---------- recv ----------

inline static void next_pkt(void)
{
  if (gNextPacketPtr - 1 > RXSTOP_INIT)
    2582:	b7 01       	movw	r22, r14
    2584:	61 50       	subi	r22, 0x01	; 1
    2586:	70 40       	sbci	r23, 0x00	; 0
    2588:	fa e1       	ldi	r31, 0x1A	; 26
    258a:	60 30       	cpi	r22, 0x00	; 0
    258c:	7f 07       	cpc	r23, r31
    258e:	30 f0       	brcs	.+12     	; 0x259c <enc28j60_recv+0x7c>
      writeReg(ERXRDPT, RXSTOP_INIT);
    2590:	8c e0       	ldi	r24, 0x0C	; 12
    2592:	6f ef       	ldi	r22, 0xFF	; 255
    2594:	79 e1       	ldi	r23, 0x19	; 25
    2596:	0e 94 df 10 	call	0x21be	; 0x21be <writeReg>
    259a:	03 c0       	rjmp	.+6      	; 0x25a2 <enc28j60_recv+0x82>
  else
      writeReg(ERXRDPT, gNextPacketPtr - 1);
    259c:	8c e0       	ldi	r24, 0x0C	; 12
    259e:	0e 94 df 10 	call	0x21be	; 0x21be <writeReg>
  writeOp(ENC28J60_BIT_FIELD_SET, ECON2, ECON2_PKTDEC);
    25a2:	80 e8       	ldi	r24, 0x80	; 128
    25a4:	6e e1       	ldi	r22, 0x1E	; 30
    25a6:	40 e4       	ldi	r20, 0x40	; 64
    25a8:	0e 94 66 10 	call	0x20cc	; 0x20cc <writeOp>
    25ac:	03 e0       	ldi	r16, 0x03	; 3
    25ae:	20 c0       	rjmp	.+64     	; 0x25f0 <enc28j60_recv+0xd0>
  }

  // check size
  uint16_t len = *got_size;
  uint8_t result = PIO_OK;
  if(len > max_size) {
    25b0:	c2 16       	cp	r12, r18
    25b2:	d3 06       	cpc	r13, r19
    25b4:	18 f4       	brcc	.+6      	; 0x25bc <enc28j60_recv+0x9c>
    25b6:	96 01       	movw	r18, r12
    25b8:	02 e0       	ldi	r16, 0x02	; 2
    25ba:	01 c0       	rjmp	.+2      	; 0x25be <enc28j60_recv+0x9e>
    25bc:	00 e0       	ldi	r16, 0x00	; 0
    len = max_size;
    result = PIO_TOO_LARGE;
  }

  // read packet
  readBuf(len, data);
    25be:	c9 01       	movw	r24, r18
    25c0:	b5 01       	movw	r22, r10
    25c2:	0e 94 7f 10 	call	0x20fe	; 0x20fe <readBuf>

// ---------- recv ----------

inline static void next_pkt(void)
{
  if (gNextPacketPtr - 1 > RXSTOP_INIT)
    25c6:	b7 01       	movw	r22, r14
    25c8:	61 50       	subi	r22, 0x01	; 1
    25ca:	70 40       	sbci	r23, 0x00	; 0
    25cc:	8a e1       	ldi	r24, 0x1A	; 26
    25ce:	60 30       	cpi	r22, 0x00	; 0
    25d0:	78 07       	cpc	r23, r24
    25d2:	30 f0       	brcs	.+12     	; 0x25e0 <enc28j60_recv+0xc0>
      writeReg(ERXRDPT, RXSTOP_INIT);
    25d4:	8c e0       	ldi	r24, 0x0C	; 12
    25d6:	6f ef       	ldi	r22, 0xFF	; 255
    25d8:	79 e1       	ldi	r23, 0x19	; 25
    25da:	0e 94 df 10 	call	0x21be	; 0x21be <writeReg>
    25de:	03 c0       	rjmp	.+6      	; 0x25e6 <enc28j60_recv+0xc6>
  else
      writeReg(ERXRDPT, gNextPacketPtr - 1);
    25e0:	8c e0       	ldi	r24, 0x0C	; 12
    25e2:	0e 94 df 10 	call	0x21be	; 0x21be <writeReg>
  writeOp(ENC28J60_BIT_FIELD_SET, ECON2, ECON2_PKTDEC);
    25e6:	80 e8       	ldi	r24, 0x80	; 128
    25e8:	6e e1       	ldi	r22, 0x1E	; 30
    25ea:	40 e4       	ldi	r20, 0x40	; 64
    25ec:	0e 94 66 10 	call	0x20cc	; 0x20cc <writeOp>
  // read packet
  readBuf(len, data);

  next_pkt();
  return result;
}
    25f0:	80 2f       	mov	r24, r16
    25f2:	26 96       	adiw	r28, 0x06	; 6
    25f4:	0f b6       	in	r0, 0x3f	; 63
    25f6:	f8 94       	cli
    25f8:	de bf       	out	0x3e, r29	; 62
    25fa:	0f be       	out	0x3f, r0	; 63
    25fc:	cd bf       	out	0x3d, r28	; 61
    25fe:	cf 91       	pop	r28
    2600:	df 91       	pop	r29
    2602:	1f 91       	pop	r17
    2604:	0f 91       	pop	r16
    2606:	ff 90       	pop	r15
    2608:	ef 90       	pop	r14
    260a:	df 90       	pop	r13
    260c:	cf 90       	pop	r12
    260e:	bf 90       	pop	r11
    2610:	af 90       	pop	r10
    2612:	08 95       	ret

00002614 <spi_init>:
#include "spi.h"

void spi_init(void)
{
	// output: CS, MOSI, SCK, input: MISO, card detect, write protect
	SPI_DDR |= SPI_SCK | SPI_MOSI | SD_CS | ETH_CS;
    2614:	e4 e2       	ldi	r30, 0x24	; 36
    2616:	f0 e0       	ldi	r31, 0x00	; 0
    2618:	80 81       	ld	r24, Z
    261a:	8e 62       	ori	r24, 0x2E	; 46
    261c:	80 83       	st	Z, r24
	SPI_DDR &= ~(SPI_MISO | SD_DETECT | SD_LOCK);
    261e:	80 81       	ld	r24, Z
    2620:	8e 76       	andi	r24, 0x6E	; 110
    2622:	80 83       	st	Z, r24

	// MOSI, SCK = 0, Eth CS = 1
	SPI_PORT &= ~(SPI_MOSI | SPI_SCK);
    2624:	e5 e2       	ldi	r30, 0x25	; 37
    2626:	f0 e0       	ldi	r31, 0x00	; 0
    2628:	80 81       	ld	r24, Z
    262a:	87 7d       	andi	r24, 0xD7	; 215
    262c:	80 83       	st	Z, r24
	SPI_PORT |= ETH_CS;
    262e:	80 81       	ld	r24, Z
    2630:	84 60       	ori	r24, 0x04	; 4
    2632:	80 83       	st	Z, r24

  SPCR = _BV(SPE) | _BV(MSTR); // 8 MHz @ 16
    2634:	80 e5       	ldi	r24, 0x50	; 80
    2636:	8c bd       	out	0x2c, r24	; 44
	SPSR = _BV(SPI2X);
    2638:	81 e0       	ldi	r24, 0x01	; 1
    263a:	8d bd       	out	0x2d, r24	; 45
}
    263c:	08 95       	ret

0000263e <stats_reset>:
#include "base/uart.h"

stats_t stats[STATS_ID_NUM];

void stats_reset(void)
{
    263e:	e0 e7       	ldi	r30, 0x70	; 112
    2640:	f7 e0       	ldi	r31, 0x07	; 7
  for(uint8_t i=0;i<STATS_ID_NUM;i++) {
    2642:	20 ea       	ldi	r18, 0xA0	; 160
    2644:	37 e0       	ldi	r19, 0x07	; 7
    stats_t *s = &stats[i];
    s->bytes = 0;
    2646:	10 82       	st	Z, r1
    2648:	11 82       	std	Z+1, r1	; 0x01
    264a:	12 82       	std	Z+2, r1	; 0x02
    264c:	13 82       	std	Z+3, r1	; 0x03
    s->cnt = 0;
    264e:	15 82       	std	Z+5, r1	; 0x05
    2650:	14 82       	std	Z+4, r1	; 0x04
    s->err = 0;
    2652:	17 82       	std	Z+7, r1	; 0x07
    2654:	16 82       	std	Z+6, r1	; 0x06
    s->drop = 0;
    2656:	11 86       	std	Z+9, r1	; 0x09
    2658:	10 86       	std	Z+8, r1	; 0x08
    s->max_rate = 0;
    265a:	13 86       	std	Z+11, r1	; 0x0b
    265c:	12 86       	std	Z+10, r1	; 0x0a
    265e:	3c 96       	adiw	r30, 0x0c	; 12

stats_t stats[STATS_ID_NUM];

void stats_reset(void)
{
  for(uint8_t i=0;i<STATS_ID_NUM;i++) {
    2660:	e2 17       	cp	r30, r18
    2662:	f3 07       	cpc	r31, r19
    2664:	81 f7       	brne	.-32     	; 0x2646 <stats_reset+0x8>
    s->cnt = 0;
    s->err = 0;
    s->drop = 0;
    s->max_rate = 0;
  }
}
    2666:	08 95       	ret

00002668 <stats_update_ok>:

void stats_update_ok(uint8_t id, uint16_t size, uint16_t rate)
{
    2668:	0f 93       	push	r16
    266a:	1f 93       	push	r17
  stats_t *s = &stats[id];
    266c:	9c e0       	ldi	r25, 0x0C	; 12
    266e:	89 9f       	mul	r24, r25
    2670:	c0 01       	movw	r24, r0
    2672:	11 24       	eor	r1, r1
    2674:	fc 01       	movw	r30, r24
    2676:	e0 59       	subi	r30, 0x90	; 144
    2678:	f8 4f       	sbci	r31, 0xF8	; 248
  s->cnt++;
    267a:	84 81       	ldd	r24, Z+4	; 0x04
    267c:	95 81       	ldd	r25, Z+5	; 0x05
    267e:	01 96       	adiw	r24, 0x01	; 1
    2680:	95 83       	std	Z+5, r25	; 0x05
    2682:	84 83       	std	Z+4, r24	; 0x04
  s->bytes += size;
    2684:	8b 01       	movw	r16, r22
    2686:	20 e0       	ldi	r18, 0x00	; 0
    2688:	30 e0       	ldi	r19, 0x00	; 0
    268a:	80 81       	ld	r24, Z
    268c:	91 81       	ldd	r25, Z+1	; 0x01
    268e:	a2 81       	ldd	r26, Z+2	; 0x02
    2690:	b3 81       	ldd	r27, Z+3	; 0x03
    2692:	80 0f       	add	r24, r16
    2694:	91 1f       	adc	r25, r17
    2696:	a2 1f       	adc	r26, r18
    2698:	b3 1f       	adc	r27, r19
    269a:	80 83       	st	Z, r24
    269c:	91 83       	std	Z+1, r25	; 0x01
    269e:	a2 83       	std	Z+2, r26	; 0x02
    26a0:	b3 83       	std	Z+3, r27	; 0x03
  if(rate > s->max_rate) {
    26a2:	82 85       	ldd	r24, Z+10	; 0x0a
    26a4:	93 85       	ldd	r25, Z+11	; 0x0b
    26a6:	84 17       	cp	r24, r20
    26a8:	95 07       	cpc	r25, r21
    26aa:	10 f4       	brcc	.+4      	; 0x26b0 <stats_update_ok+0x48>
    s->max_rate = rate;
    26ac:	53 87       	std	Z+11, r21	; 0x0b
    26ae:	42 87       	std	Z+10, r20	; 0x0a
  }
}
    26b0:	1f 91       	pop	r17
    26b2:	0f 91       	pop	r16
    26b4:	08 95       	ret

000026b6 <dump_line>:
      break;
    default:
			// NOTE: UART - ?
      break;
  }
}
    26b6:	08 95       	ret

000026b8 <dump_header>:

static void dump_header(void)
{
	// NOTE: UART - cnt  bytes    err  drop rate\r\n
}
    26b8:	08 95       	ret

000026ba <stats_dump_all>:
{
  dump_header();
  for(uint8_t i=0;i<STATS_ID_NUM;i++) {
    dump_line(i);
  }
}
    26ba:	08 95       	ret

000026bc <stats_dump>:
  }
  if(pio) {
    dump_line(STATS_ID_PIO_RX);
    dump_line(STATS_ID_PIO_TX);
  }
}
    26bc:	08 95       	ret

000026be <__mulsi3>:
    26be:	62 9f       	mul	r22, r18
    26c0:	d0 01       	movw	r26, r0
    26c2:	73 9f       	mul	r23, r19
    26c4:	f0 01       	movw	r30, r0
    26c6:	82 9f       	mul	r24, r18
    26c8:	e0 0d       	add	r30, r0
    26ca:	f1 1d       	adc	r31, r1
    26cc:	64 9f       	mul	r22, r20
    26ce:	e0 0d       	add	r30, r0
    26d0:	f1 1d       	adc	r31, r1
    26d2:	92 9f       	mul	r25, r18
    26d4:	f0 0d       	add	r31, r0
    26d6:	83 9f       	mul	r24, r19
    26d8:	f0 0d       	add	r31, r0
    26da:	74 9f       	mul	r23, r20
    26dc:	f0 0d       	add	r31, r0
    26de:	65 9f       	mul	r22, r21
    26e0:	f0 0d       	add	r31, r0
    26e2:	99 27       	eor	r25, r25
    26e4:	72 9f       	mul	r23, r18
    26e6:	b0 0d       	add	r27, r0
    26e8:	e1 1d       	adc	r30, r1
    26ea:	f9 1f       	adc	r31, r25
    26ec:	63 9f       	mul	r22, r19
    26ee:	b0 0d       	add	r27, r0
    26f0:	e1 1d       	adc	r30, r1
    26f2:	f9 1f       	adc	r31, r25
    26f4:	bd 01       	movw	r22, r26
    26f6:	cf 01       	movw	r24, r30
    26f8:	11 24       	eor	r1, r1
    26fa:	08 95       	ret

000026fc <__udivmodqi4>:
    26fc:	99 1b       	sub	r25, r25
    26fe:	79 e0       	ldi	r23, 0x09	; 9
    2700:	04 c0       	rjmp	.+8      	; 0x270a <__udivmodqi4_ep>

00002702 <__udivmodqi4_loop>:
    2702:	99 1f       	adc	r25, r25
    2704:	96 17       	cp	r25, r22
    2706:	08 f0       	brcs	.+2      	; 0x270a <__udivmodqi4_ep>
    2708:	96 1b       	sub	r25, r22

0000270a <__udivmodqi4_ep>:
    270a:	88 1f       	adc	r24, r24
    270c:	7a 95       	dec	r23
    270e:	c9 f7       	brne	.-14     	; 0x2702 <__udivmodqi4_loop>
    2710:	80 95       	com	r24
    2712:	08 95       	ret

00002714 <__udivmodsi4>:
    2714:	a1 e2       	ldi	r26, 0x21	; 33
    2716:	1a 2e       	mov	r1, r26
    2718:	aa 1b       	sub	r26, r26
    271a:	bb 1b       	sub	r27, r27
    271c:	fd 01       	movw	r30, r26
    271e:	0d c0       	rjmp	.+26     	; 0x273a <__udivmodsi4_ep>

00002720 <__udivmodsi4_loop>:
    2720:	aa 1f       	adc	r26, r26
    2722:	bb 1f       	adc	r27, r27
    2724:	ee 1f       	adc	r30, r30
    2726:	ff 1f       	adc	r31, r31
    2728:	a2 17       	cp	r26, r18
    272a:	b3 07       	cpc	r27, r19
    272c:	e4 07       	cpc	r30, r20
    272e:	f5 07       	cpc	r31, r21
    2730:	20 f0       	brcs	.+8      	; 0x273a <__udivmodsi4_ep>
    2732:	a2 1b       	sub	r26, r18
    2734:	b3 0b       	sbc	r27, r19
    2736:	e4 0b       	sbc	r30, r20
    2738:	f5 0b       	sbc	r31, r21

0000273a <__udivmodsi4_ep>:
    273a:	66 1f       	adc	r22, r22
    273c:	77 1f       	adc	r23, r23
    273e:	88 1f       	adc	r24, r24
    2740:	99 1f       	adc	r25, r25
    2742:	1a 94       	dec	r1
    2744:	69 f7       	brne	.-38     	; 0x2720 <__udivmodsi4_loop>
    2746:	60 95       	com	r22
    2748:	70 95       	com	r23
    274a:	80 95       	com	r24
    274c:	90 95       	com	r25
    274e:	9b 01       	movw	r18, r22
    2750:	ac 01       	movw	r20, r24
    2752:	bd 01       	movw	r22, r26
    2754:	cf 01       	movw	r24, r30
    2756:	08 95       	ret

00002758 <__eerd_block_m328p>:
    2758:	dc 01       	movw	r26, r24
    275a:	cb 01       	movw	r24, r22

0000275c <__eerd_blraw_m328p>:
    275c:	fc 01       	movw	r30, r24
    275e:	f9 99       	sbic	0x1f, 1	; 31
    2760:	fe cf       	rjmp	.-4      	; 0x275e <__eerd_blraw_m328p+0x2>
    2762:	06 c0       	rjmp	.+12     	; 0x2770 <__eerd_blraw_m328p+0x14>
    2764:	f2 bd       	out	0x22, r31	; 34
    2766:	e1 bd       	out	0x21, r30	; 33
    2768:	f8 9a       	sbi	0x1f, 0	; 31
    276a:	31 96       	adiw	r30, 0x01	; 1
    276c:	00 b4       	in	r0, 0x20	; 32
    276e:	0d 92       	st	X+, r0
    2770:	41 50       	subi	r20, 0x01	; 1
    2772:	50 40       	sbci	r21, 0x00	; 0
    2774:	b8 f7       	brcc	.-18     	; 0x2764 <__eerd_blraw_m328p+0x8>
    2776:	08 95       	ret

00002778 <__eerd_word_m328p>:
    2778:	a8 e1       	ldi	r26, 0x18	; 24
    277a:	b0 e0       	ldi	r27, 0x00	; 0
    277c:	42 e0       	ldi	r20, 0x02	; 2
    277e:	50 e0       	ldi	r21, 0x00	; 0
    2780:	0c 94 ae 13 	jmp	0x275c	; 0x275c <__eerd_blraw_m328p>

00002784 <__eewr_block_m328p>:
    2784:	dc 01       	movw	r26, r24
    2786:	cb 01       	movw	r24, r22
    2788:	03 c0       	rjmp	.+6      	; 0x2790 <__eewr_block_m328p+0xc>
    278a:	2d 91       	ld	r18, X+
    278c:	0e 94 cd 13 	call	0x279a	; 0x279a <__eewr_r18_m328p>
    2790:	41 50       	subi	r20, 0x01	; 1
    2792:	50 40       	sbci	r21, 0x00	; 0
    2794:	d0 f7       	brcc	.-12     	; 0x278a <__eewr_block_m328p+0x6>
    2796:	08 95       	ret

00002798 <__eewr_byte_m328p>:
    2798:	26 2f       	mov	r18, r22

0000279a <__eewr_r18_m328p>:
    279a:	f9 99       	sbic	0x1f, 1	; 31
    279c:	fe cf       	rjmp	.-4      	; 0x279a <__eewr_r18_m328p>
    279e:	1f ba       	out	0x1f, r1	; 31
    27a0:	92 bd       	out	0x22, r25	; 34
    27a2:	81 bd       	out	0x21, r24	; 33
    27a4:	20 bd       	out	0x20, r18	; 32
    27a6:	0f b6       	in	r0, 0x3f	; 63
    27a8:	f8 94       	cli
    27aa:	fa 9a       	sbi	0x1f, 2	; 31
    27ac:	f9 9a       	sbi	0x1f, 1	; 31
    27ae:	0f be       	out	0x3f, r0	; 63
    27b0:	01 96       	adiw	r24, 0x01	; 1
    27b2:	08 95       	ret

000027b4 <__eewr_word_m328p>:
    27b4:	0e 94 cc 13 	call	0x2798	; 0x2798 <__eewr_byte_m328p>
    27b8:	27 2f       	mov	r18, r23
    27ba:	0c 94 cd 13 	jmp	0x279a	; 0x279a <__eewr_r18_m328p>

000027be <_exit>:
    27be:	f8 94       	cli

000027c0 <__stop_program>:
    27c0:	ff cf       	rjmp	.-2      	; 0x27c0 <__stop_program>
