Archive member included to satisfy reference by file (symbol)

d:/prg/kompilatory/avr-gcc/bin/../lib/gcc/avr/7.2.0/avr5\libgcc.a(_udivmodqi4.o)
                              obj/main/base_util.o (__udivmodqi4)
d:/prg/kompilatory/avr-gcc/bin/../lib/gcc/avr/7.2.0/avr5\libgcc.a(_udivmodsi4.o)
                              obj/main/base_timer.o (__udivmodsi4)
d:/prg/kompilatory/avr-gcc/bin/../lib/gcc/avr/7.2.0/avr5\libgcc.a(_exit.o)
                              d:/prg/kompilatory/avr-gcc/bin/../lib/gcc/avr/7.2.0/../../../../avr/lib/avr5/crtatmega328p.o (exit)
d:/prg/kompilatory/avr-gcc/bin/../lib/gcc/avr/7.2.0/avr5\libgcc.a(_copy_data.o)
                              obj/main/pb_proto.o (__do_copy_data)
d:/prg/kompilatory/avr-gcc/bin/../lib/gcc/avr/7.2.0/avr5\libgcc.a(_clear_bss.o)
                              obj/main/pio_util.o (__do_clear_bss)
d:/prg/kompilatory/avr-gcc/bin/../lib/gcc/avr/7.2.0/avr5\libgcc.a(_bswapsi2.o)
                              obj/main/net_net.o (__bswapsi2)
d:/prg/kompilatory/avr-gcc/bin/../lib/gcc/avr/7.2.0/avr5\libgcc.a(_muluhisi3.o)
                              obj/main/base_timer.o (__muluhisi3)
d:/prg/kompilatory/avr-gcc/bin/../lib/gcc/avr/7.2.0/avr5\libgcc.a(_umulhisi3.o)
                              d:/prg/kompilatory/avr-gcc/bin/../lib/gcc/avr/7.2.0/avr5\libgcc.a(_muluhisi3.o) (__umulhisi3)
d:/prg/kompilatory/avr-gcc/bin/../lib/gcc/avr/7.2.0/../../../../avr/lib/avr5\libatmega328p.a(eerd_block.o)
                              obj/main/config.o (eeprom_read_block)
d:/prg/kompilatory/avr-gcc/bin/../lib/gcc/avr/7.2.0/../../../../avr/lib/avr5\libatmega328p.a(eerd_word.o)
                              obj/main/config.o (eeprom_read_word)
d:/prg/kompilatory/avr-gcc/bin/../lib/gcc/avr/7.2.0/../../../../avr/lib/avr5\libatmega328p.a(eewr_block.o)
                              obj/main/config.o (eeprom_write_block)
d:/prg/kompilatory/avr-gcc/bin/../lib/gcc/avr/7.2.0/../../../../avr/lib/avr5\libatmega328p.a(eewr_byte.o)
                              d:/prg/kompilatory/avr-gcc/bin/../lib/gcc/avr/7.2.0/../../../../avr/lib/avr5\libatmega328p.a(eewr_block.o) (eeprom_write_r18)
d:/prg/kompilatory/avr-gcc/bin/../lib/gcc/avr/7.2.0/../../../../avr/lib/avr5\libatmega328p.a(eewr_word.o)
                              obj/main/config.o (eeprom_write_word)

Allocating common symbols
Common symbol       size              file

g_uwCmdResponseSize
                    0x2               obj/main/cmd.o
pb_proto_stat       0x10              obj/main/pb_proto.o
s_ubFlags           0x1               obj/main/bridge.o
g_uwTimer10ms       0x2               obj/main/base_timer.o
g_pDataBuffer       0x5ea             obj/main/pkt_buf.o
stats               0x30              obj/main/stats.o
g_uwTimer100us      0x2               obj/main/base_timer.o
g_uwTimeStamp       0x4               obj/main/base_timer.o
g_sConfig           0x14              obj/main/config.o

Memory Configuration

Name             Origin             Length             Attributes
text             0x0000000000000000 0x0000000000020000 xr
data             0x0000000000800060 0x000000000000ffa0 rw !x
eeprom           0x0000000000810000 0x0000000000010000 rw !x
fuse             0x0000000000820000 0x0000000000000400 rw !x
lock             0x0000000000830000 0x0000000000000400 rw !x
signature        0x0000000000840000 0x0000000000000400 rw !x
user_signatures  0x0000000000850000 0x0000000000000400 rw !x
*default*        0x0000000000000000 0xffffffffffffffff

Linker script and memory map

Address of section .data set to 0x800100
LOAD d:/prg/kompilatory/avr-gcc/bin/../lib/gcc/avr/7.2.0/../../../../avr/lib/avr5/crtatmega328p.o
LOAD obj/main/pio_util.o
LOAD obj/main/fuse.o
LOAD obj/main/pb_proto.o
LOAD obj/main/cmd.o
LOAD obj/main/main.o
LOAD obj/main/bridge.o
LOAD obj/main/config.o
LOAD obj/main/cmdkey_table.o
LOAD obj/main/stats.o
LOAD obj/main/pkt_buf.o
LOAD obj/main/cmd_table.o
LOAD obj/main/net_arp.o
LOAD obj/main/net_net.o
LOAD obj/main/base_timer.o
LOAD obj/main/base_util.o
LOAD obj/main/base_uartutil.o
LOAD obj/main/base_uart.o
LOAD obj/main/spi_enc28j60.o
LOAD obj/main/spi_spi.o
START GROUP
LOAD d:/prg/kompilatory/avr-gcc/bin/../lib/gcc/avr/7.2.0/avr5\libgcc.a
LOAD d:/prg/kompilatory/avr-gcc/bin/../lib/gcc/avr/7.2.0/../../../../avr/lib/avr5\libm.a
LOAD d:/prg/kompilatory/avr-gcc/bin/../lib/gcc/avr/7.2.0/../../../../avr/lib/avr5\libc.a
LOAD d:/prg/kompilatory/avr-gcc/bin/../lib/gcc/avr/7.2.0/../../../../avr/lib/avr5\libatmega328p.a
END GROUP
                0x0000000000020000                __TEXT_REGION_LENGTH__ = DEFINED (__TEXT_REGION_LENGTH__)?__TEXT_REGION_LENGTH__:0x20000
                0x000000000000ffa0                __DATA_REGION_LENGTH__ = DEFINED (__DATA_REGION_LENGTH__)?__DATA_REGION_LENGTH__:0xffa0
                0x0000000000010000                __EEPROM_REGION_LENGTH__ = DEFINED (__EEPROM_REGION_LENGTH__)?__EEPROM_REGION_LENGTH__:0x10000
                0x0000000000000400                __FUSE_REGION_LENGTH__ = DEFINED (__FUSE_REGION_LENGTH__)?__FUSE_REGION_LENGTH__:0x400
                0x0000000000000400                __LOCK_REGION_LENGTH__ = DEFINED (__LOCK_REGION_LENGTH__)?__LOCK_REGION_LENGTH__:0x400
                0x0000000000000400                __SIGNATURE_REGION_LENGTH__ = DEFINED (__SIGNATURE_REGION_LENGTH__)?__SIGNATURE_REGION_LENGTH__:0x400
                0x0000000000000400                __USER_SIGNATURE_REGION_LENGTH__ = DEFINED (__USER_SIGNATURE_REGION_LENGTH__)?__USER_SIGNATURE_REGION_LENGTH__:0x400

.hash
 *(.hash)

.dynsym
 *(.dynsym)

.dynstr
 *(.dynstr)

.gnu.version
 *(.gnu.version)

.gnu.version_d
 *(.gnu.version_d)

.gnu.version_r
 *(.gnu.version_r)

.rel.init
 *(.rel.init)

.rela.init
 *(.rela.init)

.rel.text
 *(.rel.text)
 *(.rel.text.*)
 *(.rel.gnu.linkonce.t*)

.rela.text
 *(.rela.text)
 *(.rela.text.*)
 *(.rela.gnu.linkonce.t*)

.rel.fini
 *(.rel.fini)

.rela.fini
 *(.rela.fini)

.rel.rodata
 *(.rel.rodata)
 *(.rel.rodata.*)
 *(.rel.gnu.linkonce.r*)

.rela.rodata
 *(.rela.rodata)
 *(.rela.rodata.*)
 *(.rela.gnu.linkonce.r*)

.rel.data
 *(.rel.data)
 *(.rel.data.*)
 *(.rel.gnu.linkonce.d*)

.rela.data
 *(.rela.data)
 *(.rela.data.*)
 *(.rela.gnu.linkonce.d*)

.rel.ctors
 *(.rel.ctors)

.rela.ctors
 *(.rela.ctors)

.rel.dtors
 *(.rel.dtors)

.rela.dtors
 *(.rela.dtors)

.rel.got
 *(.rel.got)

.rela.got
 *(.rela.got)

.rel.bss
 *(.rel.bss)

.rela.bss
 *(.rela.bss)

.rel.plt
 *(.rel.plt)

.rela.plt
 *(.rela.plt)

.text           0x0000000000000000     0x17c8
 *(.vectors)
 .vectors       0x0000000000000000       0x68 d:/prg/kompilatory/avr-gcc/bin/../lib/gcc/avr/7.2.0/../../../../avr/lib/avr5/crtatmega328p.o
                0x0000000000000000                __vector_default
                0x0000000000000000                __vectors
 *(.vectors)
 *(.progmem.gcc*)
                0x0000000000000068                . = ALIGN (0x2)
                0x0000000000000068                __trampolines_start = .
 *(.trampolines)
 .trampolines   0x0000000000000068        0x0 linker stubs
 *(.trampolines*)
                0x0000000000000068                __trampolines_end = .
 *libprintf_flt.a:*(.progmem.data)
 *libc.a:*(.progmem.data)
 *(.progmem*)
 .progmem.data  0x0000000000000068       0x14 obj/main/config.o
                0x000000000000007c                . = ALIGN (0x2)
 *(.lowtext)
 *(.lowtext*)
                0x000000000000007c                __ctors_start = .
 *(.ctors)
                0x000000000000007c                __ctors_end = .
                0x000000000000007c                __dtors_start = .
 *(.dtors)
                0x000000000000007c                __dtors_end = .
 SORT(*)(.ctors)
 SORT(*)(.dtors)
 *(.init0)
 .init0         0x000000000000007c        0x0 d:/prg/kompilatory/avr-gcc/bin/../lib/gcc/avr/7.2.0/../../../../avr/lib/avr5/crtatmega328p.o
                0x000000000000007c                __init
 *(.init0)
 *(.init1)
 *(.init1)
 *(.init2)
 .init2         0x000000000000007c        0xc d:/prg/kompilatory/avr-gcc/bin/../lib/gcc/avr/7.2.0/../../../../avr/lib/avr5/crtatmega328p.o
 *(.init2)
 *(.init3)
 *(.init3)
 *(.init4)
 .init4         0x0000000000000088       0x16 d:/prg/kompilatory/avr-gcc/bin/../lib/gcc/avr/7.2.0/avr5\libgcc.a(_copy_data.o)
                0x0000000000000088                __do_copy_data
 .init4         0x000000000000009e       0x10 d:/prg/kompilatory/avr-gcc/bin/../lib/gcc/avr/7.2.0/avr5\libgcc.a(_clear_bss.o)
                0x000000000000009e                __do_clear_bss
 *(.init4)
 *(.init5)
 *(.init5)
 *(.init6)
 *(.init6)
 *(.init7)
 *(.init7)
 *(.init8)
 *(.init8)
 *(.init9)
 .init9         0x00000000000000ae        0x8 d:/prg/kompilatory/avr-gcc/bin/../lib/gcc/avr/7.2.0/../../../../avr/lib/avr5/crtatmega328p.o
 *(.init9)
 *(.text)
 .text          0x00000000000000b6        0x4 d:/prg/kompilatory/avr-gcc/bin/../lib/gcc/avr/7.2.0/../../../../avr/lib/avr5/crtatmega328p.o
                0x00000000000000b6                __vector_22
                0x00000000000000b6                __vector_1
                0x00000000000000b6                __vector_24
                0x00000000000000b6                __vector_12
                0x00000000000000b6                __bad_interrupt
                0x00000000000000b6                __vector_6
                0x00000000000000b6                __vector_3
                0x00000000000000b6                __vector_23
                0x00000000000000b6                __vector_25
                0x00000000000000b6                __vector_13
                0x00000000000000b6                __vector_17
                0x00000000000000b6                __vector_19
                0x00000000000000b6                __vector_7
                0x00000000000000b6                __vector_5
                0x00000000000000b6                __vector_4
                0x00000000000000b6                __vector_9
                0x00000000000000b6                __vector_2
                0x00000000000000b6                __vector_21
                0x00000000000000b6                __vector_15
                0x00000000000000b6                __vector_8
                0x00000000000000b6                __vector_14
                0x00000000000000b6                __vector_10
                0x00000000000000b6                __vector_16
                0x00000000000000b6                __vector_20
 .text          0x00000000000000ba       0xcc obj/main/pio_util.o
                0x00000000000000ba                pio_util_get_init_flags
                0x00000000000000d2                pio_util_recv_packet
                0x0000000000000130                pio_util_send_packet
 .text          0x0000000000000186        0x0 obj/main/fuse.o
 .text          0x0000000000000186      0x502 obj/main/pb_proto.o
                0x00000000000001c4                parInit
                0x00000000000001e0                parGetStatusLines
                0x00000000000001fa                parRequestAmiRead
                0x0000000000000228                pb_proto_handle
 .text          0x0000000000000688       0x90 obj/main/cmd.o
                0x0000000000000688                cmdProcess
 .text          0x0000000000000718        0x0 obj/main/main.o
 .text          0x0000000000000718      0x1a8 obj/main/bridge.o
                0x000000000000072c                bridgeFillPacket
                0x000000000000079c                bridgeProcessPacket
                0x0000000000000848                bridgeLoop
 .text          0x00000000000008c0       0xd0 obj/main/config.o
                0x0000000000000902                configSaveToRom
                0x000000000000092c                configReset
                0x0000000000000944                configLoadFromRom
                0x0000000000000984                configInit
 .text          0x0000000000000990        0x0 obj/main/cmdkey_table.o
 .text          0x0000000000000990       0x6a obj/main/stats.o
                0x0000000000000990                stats_reset
                0x00000000000009b8                stats_update_ok
                0x00000000000009f6                stats_dump_all
                0x00000000000009f8                stats_dump
 .text          0x00000000000009fa        0x0 obj/main/pkt_buf.o
 .text          0x00000000000009fa        0x0 obj/main/cmd_table.o
 .text          0x00000000000009fa       0xb4 obj/main/net_arp.o
                0x00000000000009fa                arp_is_ipv4
                0x0000000000000a40                arp_make_reply
 .text          0x0000000000000aae      0x1e2 obj/main/net_net.o
                0x0000000000000aae                net_copy_mac
                0x0000000000000ace                net_copy_ip
                0x0000000000000aee                net_get_word
                0x0000000000000afc                net_put_word
                0x0000000000000b04                net_get_long
                0x0000000000000b14                net_put_long
                0x0000000000000b20                net_dump_mac
                0x0000000000000b5a                net_parse_ip
                0x0000000000000bb8                net_parse_mac
                0x0000000000000c12                net_dump_ip
                0x0000000000000c4c                net_compare_mac
                0x0000000000000c6e                net_compare_ip
 .text          0x0000000000000c90      0x15c obj/main/base_timer.o
                0x0000000000000c90                timerInit
                0x0000000000000ce4                __vector_11
                0x0000000000000d8a                timerDelay10ms
                0x0000000000000da2                timerDelay100us
                0x0000000000000dba                timerCalculateKbps
 .text          0x0000000000000dec      0x2d0 obj/main/base_util.o
                0x0000000000000dec                utilNibbleToHex
                0x0000000000000df8                utilByteToHex
                0x0000000000000e1e                utilWordToHex
                0x0000000000000e40                utilDwordToHex
                0x0000000000000e6e                utilByteToDec
                0x0000000000000e8c                utilDwordToDec
                0x0000000000000efa                utilParseNibbleHex
                0x0000000000000f22                utilParseByteHex
                0x0000000000000f80                utilParseWordHex
                0x0000000000000fde                utilParseDwordHex
                0x000000000000107a                utilParseByteDec
                0x00000000000010a4                utilReset
 .text          0x00000000000010bc        0x0 obj/main/base_uartutil.o
 .text          0x00000000000010bc       0xda obj/main/base_uart.o
                0x00000000000010bc                uart_init
                0x00000000000010e8                __vector_18
                0x0000000000001138                uart_read_data_available
                0x000000000000114a                uart_read
                0x0000000000001188                uart_send
 .text          0x0000000000001196      0x4e2 obj/main/spi_enc28j60.o
                0x0000000000001302                enc28j60_init
                0x00000000000014a6                enc28j60_exit
                0x00000000000014bc                enc28j60_control
                0x00000000000014f0                enc28j60_status
                0x0000000000001544                enc28j60_send
                0x00000000000015d8                enc28j60_recv
                0x0000000000001672                enc28j60_has_recv
 .text          0x0000000000001678       0x20 obj/main/spi_spi.o
                0x0000000000001678                spiInit
 .text          0x0000000000001698        0x0 d:/prg/kompilatory/avr-gcc/bin/../lib/gcc/avr/7.2.0/avr5\libgcc.a(_udivmodqi4.o)
 .text          0x0000000000001698        0x0 d:/prg/kompilatory/avr-gcc/bin/../lib/gcc/avr/7.2.0/avr5\libgcc.a(_udivmodsi4.o)
 .text          0x0000000000001698        0x0 d:/prg/kompilatory/avr-gcc/bin/../lib/gcc/avr/7.2.0/avr5\libgcc.a(_exit.o)
 .text          0x0000000000001698        0x0 d:/prg/kompilatory/avr-gcc/bin/../lib/gcc/avr/7.2.0/avr5\libgcc.a(_copy_data.o)
 .text          0x0000000000001698        0x0 d:/prg/kompilatory/avr-gcc/bin/../lib/gcc/avr/7.2.0/avr5\libgcc.a(_clear_bss.o)
 .text          0x0000000000001698        0x0 d:/prg/kompilatory/avr-gcc/bin/../lib/gcc/avr/7.2.0/avr5\libgcc.a(_bswapsi2.o)
 .text          0x0000000000001698        0x0 d:/prg/kompilatory/avr-gcc/bin/../lib/gcc/avr/7.2.0/avr5\libgcc.a(_muluhisi3.o)
 .text          0x0000000000001698        0x0 d:/prg/kompilatory/avr-gcc/bin/../lib/gcc/avr/7.2.0/avr5\libgcc.a(_umulhisi3.o)
 .text          0x0000000000001698        0x0 d:/prg/kompilatory/avr-gcc/bin/../lib/gcc/avr/7.2.0/../../../../avr/lib/avr5\libatmega328p.a(eerd_block.o)
 .text          0x0000000000001698        0x0 d:/prg/kompilatory/avr-gcc/bin/../lib/gcc/avr/7.2.0/../../../../avr/lib/avr5\libatmega328p.a(eerd_word.o)
 .text          0x0000000000001698        0x0 d:/prg/kompilatory/avr-gcc/bin/../lib/gcc/avr/7.2.0/../../../../avr/lib/avr5\libatmega328p.a(eewr_block.o)
 .text          0x0000000000001698        0x0 d:/prg/kompilatory/avr-gcc/bin/../lib/gcc/avr/7.2.0/../../../../avr/lib/avr5\libatmega328p.a(eewr_byte.o)
 .text          0x0000000000001698        0x0 d:/prg/kompilatory/avr-gcc/bin/../lib/gcc/avr/7.2.0/../../../../avr/lib/avr5\libatmega328p.a(eewr_word.o)
                0x0000000000001698                . = ALIGN (0x2)
 *(.text.*)
 .text.startup  0x0000000000001698       0x28 obj/main/main.o
                0x0000000000001698                main
 .text.libgcc.mul
                0x00000000000016c0        0x0 d:/prg/kompilatory/avr-gcc/bin/../lib/gcc/avr/7.2.0/avr5\libgcc.a(_udivmodqi4.o)
 .text.libgcc.div
                0x00000000000016c0       0x18 d:/prg/kompilatory/avr-gcc/bin/../lib/gcc/avr/7.2.0/avr5\libgcc.a(_udivmodqi4.o)
                0x00000000000016c0                __udivmodqi4
 .text.libgcc   0x00000000000016d8        0x0 d:/prg/kompilatory/avr-gcc/bin/../lib/gcc/avr/7.2.0/avr5\libgcc.a(_udivmodqi4.o)
 .text.libgcc.prologue
                0x00000000000016d8        0x0 d:/prg/kompilatory/avr-gcc/bin/../lib/gcc/avr/7.2.0/avr5\libgcc.a(_udivmodqi4.o)
 .text.libgcc.builtins
                0x00000000000016d8        0x0 d:/prg/kompilatory/avr-gcc/bin/../lib/gcc/avr/7.2.0/avr5\libgcc.a(_udivmodqi4.o)
 .text.libgcc.fmul
                0x00000000000016d8        0x0 d:/prg/kompilatory/avr-gcc/bin/../lib/gcc/avr/7.2.0/avr5\libgcc.a(_udivmodqi4.o)
 .text.libgcc.fixed
                0x00000000000016d8        0x0 d:/prg/kompilatory/avr-gcc/bin/../lib/gcc/avr/7.2.0/avr5\libgcc.a(_udivmodqi4.o)
 .text.libgcc.mul
                0x00000000000016d8        0x0 d:/prg/kompilatory/avr-gcc/bin/../lib/gcc/avr/7.2.0/avr5\libgcc.a(_udivmodsi4.o)
 .text.libgcc.div
                0x00000000000016d8       0x44 d:/prg/kompilatory/avr-gcc/bin/../lib/gcc/avr/7.2.0/avr5\libgcc.a(_udivmodsi4.o)
                0x00000000000016d8                __udivmodsi4
 .text.libgcc   0x000000000000171c        0x0 d:/prg/kompilatory/avr-gcc/bin/../lib/gcc/avr/7.2.0/avr5\libgcc.a(_udivmodsi4.o)
 .text.libgcc.prologue
                0x000000000000171c        0x0 d:/prg/kompilatory/avr-gcc/bin/../lib/gcc/avr/7.2.0/avr5\libgcc.a(_udivmodsi4.o)
 .text.libgcc.builtins
                0x000000000000171c        0x0 d:/prg/kompilatory/avr-gcc/bin/../lib/gcc/avr/7.2.0/avr5\libgcc.a(_udivmodsi4.o)
 .text.libgcc.fmul
                0x000000000000171c        0x0 d:/prg/kompilatory/avr-gcc/bin/../lib/gcc/avr/7.2.0/avr5\libgcc.a(_udivmodsi4.o)
 .text.libgcc.fixed
                0x000000000000171c        0x0 d:/prg/kompilatory/avr-gcc/bin/../lib/gcc/avr/7.2.0/avr5\libgcc.a(_udivmodsi4.o)
 .text.libgcc.mul
                0x000000000000171c        0x0 d:/prg/kompilatory/avr-gcc/bin/../lib/gcc/avr/7.2.0/avr5\libgcc.a(_exit.o)
 .text.libgcc.div
                0x000000000000171c        0x0 d:/prg/kompilatory/avr-gcc/bin/../lib/gcc/avr/7.2.0/avr5\libgcc.a(_exit.o)
 .text.libgcc   0x000000000000171c        0x0 d:/prg/kompilatory/avr-gcc/bin/../lib/gcc/avr/7.2.0/avr5\libgcc.a(_exit.o)
 .text.libgcc.prologue
                0x000000000000171c        0x0 d:/prg/kompilatory/avr-gcc/bin/../lib/gcc/avr/7.2.0/avr5\libgcc.a(_exit.o)
 .text.libgcc.builtins
                0x000000000000171c        0x0 d:/prg/kompilatory/avr-gcc/bin/../lib/gcc/avr/7.2.0/avr5\libgcc.a(_exit.o)
 .text.libgcc.fmul
                0x000000000000171c        0x0 d:/prg/kompilatory/avr-gcc/bin/../lib/gcc/avr/7.2.0/avr5\libgcc.a(_exit.o)
 .text.libgcc.fixed
                0x000000000000171c        0x0 d:/prg/kompilatory/avr-gcc/bin/../lib/gcc/avr/7.2.0/avr5\libgcc.a(_exit.o)
 .text.libgcc.mul
                0x000000000000171c        0x0 d:/prg/kompilatory/avr-gcc/bin/../lib/gcc/avr/7.2.0/avr5\libgcc.a(_copy_data.o)
 .text.libgcc.div
                0x000000000000171c        0x0 d:/prg/kompilatory/avr-gcc/bin/../lib/gcc/avr/7.2.0/avr5\libgcc.a(_copy_data.o)
 .text.libgcc   0x000000000000171c        0x0 d:/prg/kompilatory/avr-gcc/bin/../lib/gcc/avr/7.2.0/avr5\libgcc.a(_copy_data.o)
 .text.libgcc.prologue
                0x000000000000171c        0x0 d:/prg/kompilatory/avr-gcc/bin/../lib/gcc/avr/7.2.0/avr5\libgcc.a(_copy_data.o)
 .text.libgcc.builtins
                0x000000000000171c        0x0 d:/prg/kompilatory/avr-gcc/bin/../lib/gcc/avr/7.2.0/avr5\libgcc.a(_copy_data.o)
 .text.libgcc.fmul
                0x000000000000171c        0x0 d:/prg/kompilatory/avr-gcc/bin/../lib/gcc/avr/7.2.0/avr5\libgcc.a(_copy_data.o)
 .text.libgcc.fixed
                0x000000000000171c        0x0 d:/prg/kompilatory/avr-gcc/bin/../lib/gcc/avr/7.2.0/avr5\libgcc.a(_copy_data.o)
 .text.libgcc.mul
                0x000000000000171c        0x0 d:/prg/kompilatory/avr-gcc/bin/../lib/gcc/avr/7.2.0/avr5\libgcc.a(_clear_bss.o)
 .text.libgcc.div
                0x000000000000171c        0x0 d:/prg/kompilatory/avr-gcc/bin/../lib/gcc/avr/7.2.0/avr5\libgcc.a(_clear_bss.o)
 .text.libgcc   0x000000000000171c        0x0 d:/prg/kompilatory/avr-gcc/bin/../lib/gcc/avr/7.2.0/avr5\libgcc.a(_clear_bss.o)
 .text.libgcc.prologue
                0x000000000000171c        0x0 d:/prg/kompilatory/avr-gcc/bin/../lib/gcc/avr/7.2.0/avr5\libgcc.a(_clear_bss.o)
 .text.libgcc.builtins
                0x000000000000171c        0x0 d:/prg/kompilatory/avr-gcc/bin/../lib/gcc/avr/7.2.0/avr5\libgcc.a(_clear_bss.o)
 .text.libgcc.fmul
                0x000000000000171c        0x0 d:/prg/kompilatory/avr-gcc/bin/../lib/gcc/avr/7.2.0/avr5\libgcc.a(_clear_bss.o)
 .text.libgcc.fixed
                0x000000000000171c        0x0 d:/prg/kompilatory/avr-gcc/bin/../lib/gcc/avr/7.2.0/avr5\libgcc.a(_clear_bss.o)
 .text.libgcc.mul
                0x000000000000171c        0x0 d:/prg/kompilatory/avr-gcc/bin/../lib/gcc/avr/7.2.0/avr5\libgcc.a(_bswapsi2.o)
 .text.libgcc.div
                0x000000000000171c        0x0 d:/prg/kompilatory/avr-gcc/bin/../lib/gcc/avr/7.2.0/avr5\libgcc.a(_bswapsi2.o)
 .text.libgcc   0x000000000000171c        0x0 d:/prg/kompilatory/avr-gcc/bin/../lib/gcc/avr/7.2.0/avr5\libgcc.a(_bswapsi2.o)
 .text.libgcc.prologue
                0x000000000000171c        0x0 d:/prg/kompilatory/avr-gcc/bin/../lib/gcc/avr/7.2.0/avr5\libgcc.a(_bswapsi2.o)
 .text.libgcc.builtins
                0x000000000000171c        0xe d:/prg/kompilatory/avr-gcc/bin/../lib/gcc/avr/7.2.0/avr5\libgcc.a(_bswapsi2.o)
                0x000000000000171c                __bswapsi2
 .text.libgcc.fmul
                0x000000000000172a        0x0 d:/prg/kompilatory/avr-gcc/bin/../lib/gcc/avr/7.2.0/avr5\libgcc.a(_bswapsi2.o)
 .text.libgcc.fixed
                0x000000000000172a        0x0 d:/prg/kompilatory/avr-gcc/bin/../lib/gcc/avr/7.2.0/avr5\libgcc.a(_bswapsi2.o)
 .text.libgcc.mul
                0x000000000000172a       0x16 d:/prg/kompilatory/avr-gcc/bin/../lib/gcc/avr/7.2.0/avr5\libgcc.a(_muluhisi3.o)
                0x000000000000172a                __muluhisi3
 .text.libgcc.div
                0x0000000000001740        0x0 d:/prg/kompilatory/avr-gcc/bin/../lib/gcc/avr/7.2.0/avr5\libgcc.a(_muluhisi3.o)
 .text.libgcc   0x0000000000001740        0x0 d:/prg/kompilatory/avr-gcc/bin/../lib/gcc/avr/7.2.0/avr5\libgcc.a(_muluhisi3.o)
 .text.libgcc.prologue
                0x0000000000001740        0x0 d:/prg/kompilatory/avr-gcc/bin/../lib/gcc/avr/7.2.0/avr5\libgcc.a(_muluhisi3.o)
 .text.libgcc.builtins
                0x0000000000001740        0x0 d:/prg/kompilatory/avr-gcc/bin/../lib/gcc/avr/7.2.0/avr5\libgcc.a(_muluhisi3.o)
 .text.libgcc.fmul
                0x0000000000001740        0x0 d:/prg/kompilatory/avr-gcc/bin/../lib/gcc/avr/7.2.0/avr5\libgcc.a(_muluhisi3.o)
 .text.libgcc.fixed
                0x0000000000001740        0x0 d:/prg/kompilatory/avr-gcc/bin/../lib/gcc/avr/7.2.0/avr5\libgcc.a(_muluhisi3.o)
 .text.libgcc.mul
                0x0000000000001740       0x1e d:/prg/kompilatory/avr-gcc/bin/../lib/gcc/avr/7.2.0/avr5\libgcc.a(_umulhisi3.o)
                0x0000000000001740                __umulhisi3
 .text.libgcc.div
                0x000000000000175e        0x0 d:/prg/kompilatory/avr-gcc/bin/../lib/gcc/avr/7.2.0/avr5\libgcc.a(_umulhisi3.o)
 .text.libgcc   0x000000000000175e        0x0 d:/prg/kompilatory/avr-gcc/bin/../lib/gcc/avr/7.2.0/avr5\libgcc.a(_umulhisi3.o)
 .text.libgcc.prologue
                0x000000000000175e        0x0 d:/prg/kompilatory/avr-gcc/bin/../lib/gcc/avr/7.2.0/avr5\libgcc.a(_umulhisi3.o)
 .text.libgcc.builtins
                0x000000000000175e        0x0 d:/prg/kompilatory/avr-gcc/bin/../lib/gcc/avr/7.2.0/avr5\libgcc.a(_umulhisi3.o)
 .text.libgcc.fmul
                0x000000000000175e        0x0 d:/prg/kompilatory/avr-gcc/bin/../lib/gcc/avr/7.2.0/avr5\libgcc.a(_umulhisi3.o)
 .text.libgcc.fixed
                0x000000000000175e        0x0 d:/prg/kompilatory/avr-gcc/bin/../lib/gcc/avr/7.2.0/avr5\libgcc.a(_umulhisi3.o)
 .text.avr-libc
                0x000000000000175e       0x20 d:/prg/kompilatory/avr-gcc/bin/../lib/gcc/avr/7.2.0/../../../../avr/lib/avr5\libatmega328p.a(eerd_block.o)
                0x000000000000175e                eeprom_read_block
                0x0000000000001762                eeprom_read_blraw
 .text.avr-libc
                0x000000000000177e        0xc d:/prg/kompilatory/avr-gcc/bin/../lib/gcc/avr/7.2.0/../../../../avr/lib/avr5\libatmega328p.a(eerd_word.o)
                0x000000000000177e                eeprom_read_word
 .text.avr-libc
                0x000000000000178a       0x14 d:/prg/kompilatory/avr-gcc/bin/../lib/gcc/avr/7.2.0/../../../../avr/lib/avr5\libatmega328p.a(eewr_block.o)
                0x000000000000178a                eeprom_write_block
 .text.avr-libc
                0x000000000000179e       0x1c d:/prg/kompilatory/avr-gcc/bin/../lib/gcc/avr/7.2.0/../../../../avr/lib/avr5\libatmega328p.a(eewr_byte.o)
                0x000000000000179e                eeprom_write_byte
                0x00000000000017a0                eeprom_write_r18
 .text.avr-libc
                0x00000000000017ba        0xa d:/prg/kompilatory/avr-gcc/bin/../lib/gcc/avr/7.2.0/../../../../avr/lib/avr5\libatmega328p.a(eewr_word.o)
                0x00000000000017ba                eeprom_write_word
                0x00000000000017c4                . = ALIGN (0x2)
 *(.fini9)
 .fini9         0x00000000000017c4        0x0 d:/prg/kompilatory/avr-gcc/bin/../lib/gcc/avr/7.2.0/avr5\libgcc.a(_exit.o)
                0x00000000000017c4                _exit
                0x00000000000017c4                exit
 *(.fini9)
 *(.fini8)
 *(.fini8)
 *(.fini7)
 *(.fini7)
 *(.fini6)
 *(.fini6)
 *(.fini5)
 *(.fini5)
 *(.fini4)
 *(.fini4)
 *(.fini3)
 *(.fini3)
 *(.fini2)
 *(.fini2)
 *(.fini1)
 *(.fini1)
 *(.fini0)
 .fini0         0x00000000000017c4        0x4 d:/prg/kompilatory/avr-gcc/bin/../lib/gcc/avr/7.2.0/avr5\libgcc.a(_exit.o)
 *(.fini0)
 *(.hightext)
 *(.hightext*)
                0x00000000000017c8                . = ALIGN (0x2)
 *(.jumptables)
 *(.jumptables*)
                0x00000000000017c8                _etext = .

.data           0x0000000000800100       0x38 load address 0x00000000000017c8
                0x0000000000800100                PROVIDE (__data_start, .)
 *(.data)
 .data          0x0000000000800100        0x0 d:/prg/kompilatory/avr-gcc/bin/../lib/gcc/avr/7.2.0/../../../../avr/lib/avr5/crtatmega328p.o
 .data          0x0000000000800100        0x0 obj/main/pio_util.o
 .data          0x0000000000800100        0x0 obj/main/fuse.o
 .data          0x0000000000800100        0x2 obj/main/pb_proto.o
                0x0000000000800100                pb_proto_timeout
 .data          0x0000000000800102        0x0 obj/main/cmd.o
 .data          0x0000000000800102        0x0 obj/main/main.o
 .data          0x0000000000800102        0x0 obj/main/bridge.o
 .data          0x0000000000800102        0x0 obj/main/config.o
 .data          0x0000000000800102        0x0 obj/main/cmdkey_table.o
 .data          0x0000000000800102        0x0 obj/main/stats.o
 .data          0x0000000000800102        0x0 obj/main/pkt_buf.o
 .data          0x0000000000800102        0x0 obj/main/cmd_table.o
 .data          0x0000000000800102        0x0 obj/main/net_arp.o
 .data          0x0000000000800102        0x0 obj/main/net_net.o
 .data          0x0000000000800102        0x0 obj/main/base_timer.o
 .data          0x0000000000800102        0x0 obj/main/base_util.o
 .data          0x0000000000800102        0x0 obj/main/base_uartutil.o
 .data          0x0000000000800102        0x0 obj/main/base_uart.o
 .data          0x0000000000800102        0x0 obj/main/spi_enc28j60.o
 .data          0x0000000000800102        0x0 obj/main/spi_spi.o
 .data          0x0000000000800102        0x0 d:/prg/kompilatory/avr-gcc/bin/../lib/gcc/avr/7.2.0/avr5\libgcc.a(_udivmodqi4.o)
 .data          0x0000000000800102        0x0 d:/prg/kompilatory/avr-gcc/bin/../lib/gcc/avr/7.2.0/avr5\libgcc.a(_udivmodsi4.o)
 .data          0x0000000000800102        0x0 d:/prg/kompilatory/avr-gcc/bin/../lib/gcc/avr/7.2.0/avr5\libgcc.a(_exit.o)
 .data          0x0000000000800102        0x0 d:/prg/kompilatory/avr-gcc/bin/../lib/gcc/avr/7.2.0/avr5\libgcc.a(_copy_data.o)
 .data          0x0000000000800102        0x0 d:/prg/kompilatory/avr-gcc/bin/../lib/gcc/avr/7.2.0/avr5\libgcc.a(_clear_bss.o)
 .data          0x0000000000800102        0x0 d:/prg/kompilatory/avr-gcc/bin/../lib/gcc/avr/7.2.0/avr5\libgcc.a(_bswapsi2.o)
 .data          0x0000000000800102        0x0 d:/prg/kompilatory/avr-gcc/bin/../lib/gcc/avr/7.2.0/avr5\libgcc.a(_muluhisi3.o)
 .data          0x0000000000800102        0x0 d:/prg/kompilatory/avr-gcc/bin/../lib/gcc/avr/7.2.0/avr5\libgcc.a(_umulhisi3.o)
 .data          0x0000000000800102        0x0 d:/prg/kompilatory/avr-gcc/bin/../lib/gcc/avr/7.2.0/../../../../avr/lib/avr5\libatmega328p.a(eerd_block.o)
 .data          0x0000000000800102        0x0 d:/prg/kompilatory/avr-gcc/bin/../lib/gcc/avr/7.2.0/../../../../avr/lib/avr5\libatmega328p.a(eerd_word.o)
 .data          0x0000000000800102        0x0 d:/prg/kompilatory/avr-gcc/bin/../lib/gcc/avr/7.2.0/../../../../avr/lib/avr5\libatmega328p.a(eewr_block.o)
 .data          0x0000000000800102        0x0 d:/prg/kompilatory/avr-gcc/bin/../lib/gcc/avr/7.2.0/../../../../avr/lib/avr5\libatmega328p.a(eewr_byte.o)
 .data          0x0000000000800102        0x0 d:/prg/kompilatory/avr-gcc/bin/../lib/gcc/avr/7.2.0/../../../../avr/lib/avr5\libatmega328p.a(eewr_word.o)
 *(.data*)
 *(.gnu.linkonce.d*)
 *(.rodata)
 .rodata        0x0000000000800102       0x14 obj/main/net_net.o
                0x0000000000800102                net_ones_ip
                0x0000000000800106                net_zero_ip
                0x000000000080010a                net_zero_mac
                0x0000000000800110                net_bcast_mac
 *(.rodata*)
 .rodata.str1.1
                0x0000000000800116       0x22 obj/main/net_net.o
 *(.gnu.linkonce.r*)
                0x0000000000800138                . = ALIGN (0x2)
                0x0000000000800138                _edata = .
                0x0000000000800138                PROVIDE (__data_end, .)

.bss            0x0000000000800138      0x66a
                0x0000000000800138                PROVIDE (__bss_start, .)
 *(.bss)
 .bss           0x0000000000800138        0x0 d:/prg/kompilatory/avr-gcc/bin/../lib/gcc/avr/7.2.0/../../../../avr/lib/avr5/crtatmega328p.o
 .bss           0x0000000000800138        0x0 obj/main/pio_util.o
 .bss           0x0000000000800138        0x0 obj/main/fuse.o
 .bss           0x0000000000800138        0x4 obj/main/pb_proto.o
 .bss           0x000000000080013c        0x0 obj/main/cmd.o
 .bss           0x000000000080013c        0x1 obj/main/main.o
                0x000000000080013c                g_ubVerboseMode
 .bss           0x000000000080013d        0x1 obj/main/bridge.o
 .bss           0x000000000080013e        0x0 obj/main/config.o
 .bss           0x000000000080013e        0x0 obj/main/cmdkey_table.o
 .bss           0x000000000080013e        0x0 obj/main/stats.o
 .bss           0x000000000080013e        0x0 obj/main/pkt_buf.o
 .bss           0x000000000080013e        0x0 obj/main/cmd_table.o
 .bss           0x000000000080013e        0x0 obj/main/net_arp.o
 .bss           0x000000000080013e        0x0 obj/main/net_net.o
 .bss           0x000000000080013e        0x2 obj/main/base_timer.o
 .bss           0x0000000000800140        0x0 obj/main/base_util.o
 .bss           0x0000000000800140        0x0 obj/main/base_uartutil.o
 .bss           0x0000000000800140       0x13 obj/main/base_uart.o
 .bss           0x0000000000800153        0x6 obj/main/spi_enc28j60.o
                0x0000000000800153                g_ubEncOnline
 .bss           0x0000000000800159        0x0 obj/main/spi_spi.o
 .bss           0x0000000000800159        0x0 d:/prg/kompilatory/avr-gcc/bin/../lib/gcc/avr/7.2.0/avr5\libgcc.a(_udivmodqi4.o)
 .bss           0x0000000000800159        0x0 d:/prg/kompilatory/avr-gcc/bin/../lib/gcc/avr/7.2.0/avr5\libgcc.a(_udivmodsi4.o)
 .bss           0x0000000000800159        0x0 d:/prg/kompilatory/avr-gcc/bin/../lib/gcc/avr/7.2.0/avr5\libgcc.a(_exit.o)
 .bss           0x0000000000800159        0x0 d:/prg/kompilatory/avr-gcc/bin/../lib/gcc/avr/7.2.0/avr5\libgcc.a(_copy_data.o)
 .bss           0x0000000000800159        0x0 d:/prg/kompilatory/avr-gcc/bin/../lib/gcc/avr/7.2.0/avr5\libgcc.a(_clear_bss.o)
 .bss           0x0000000000800159        0x0 d:/prg/kompilatory/avr-gcc/bin/../lib/gcc/avr/7.2.0/avr5\libgcc.a(_bswapsi2.o)
 .bss           0x0000000000800159        0x0 d:/prg/kompilatory/avr-gcc/bin/../lib/gcc/avr/7.2.0/avr5\libgcc.a(_muluhisi3.o)
 .bss           0x0000000000800159        0x0 d:/prg/kompilatory/avr-gcc/bin/../lib/gcc/avr/7.2.0/avr5\libgcc.a(_umulhisi3.o)
 .bss           0x0000000000800159        0x0 d:/prg/kompilatory/avr-gcc/bin/../lib/gcc/avr/7.2.0/../../../../avr/lib/avr5\libatmega328p.a(eerd_block.o)
 .bss           0x0000000000800159        0x0 d:/prg/kompilatory/avr-gcc/bin/../lib/gcc/avr/7.2.0/../../../../avr/lib/avr5\libatmega328p.a(eerd_word.o)
 .bss           0x0000000000800159        0x0 d:/prg/kompilatory/avr-gcc/bin/../lib/gcc/avr/7.2.0/../../../../avr/lib/avr5\libatmega328p.a(eewr_block.o)
 .bss           0x0000000000800159        0x0 d:/prg/kompilatory/avr-gcc/bin/../lib/gcc/avr/7.2.0/../../../../avr/lib/avr5\libatmega328p.a(eewr_byte.o)
 .bss           0x0000000000800159        0x0 d:/prg/kompilatory/avr-gcc/bin/../lib/gcc/avr/7.2.0/../../../../avr/lib/avr5\libatmega328p.a(eewr_word.o)
 *(.bss*)
 *(COMMON)
 COMMON         0x0000000000800159        0x0 obj/main/pio_util.o
 COMMON         0x0000000000800159       0x10 obj/main/pb_proto.o
                0x0000000000800159                pb_proto_stat
 COMMON         0x0000000000800169        0x2 obj/main/cmd.o
                0x0000000000800169                g_uwCmdResponseSize
 COMMON         0x000000000080016b        0x1 obj/main/bridge.o
                0x000000000080016b                s_ubFlags
 COMMON         0x000000000080016c       0x14 obj/main/config.o
                0x000000000080016c                g_sConfig
 COMMON         0x0000000000800180       0x30 obj/main/stats.o
                0x0000000000800180                stats
 COMMON         0x00000000008001b0      0x5ea obj/main/pkt_buf.o
                0x00000000008001b0                g_pDataBuffer
 COMMON         0x000000000080079a        0x8 obj/main/base_timer.o
                0x000000000080079a                g_uwTimer10ms
                0x000000000080079c                g_uwTimer100us
                0x000000000080079e                g_uwTimeStamp
                0x00000000008007a2                PROVIDE (__bss_end, .)
                0x00000000000017c8                __data_load_start = LOADADDR (.data)
                0x0000000000001800                __data_load_end = (__data_load_start + SIZEOF (.data))

.noinit         0x00000000008007a2        0x0
                [!provide]                        PROVIDE (__noinit_start, .)
 *(.noinit*)
                [!provide]                        PROVIDE (__noinit_end, .)
                0x00000000008007a2                _end = .
                [!provide]                        PROVIDE (__heap_start, .)

.eeprom         0x0000000000810000       0x16
 *(.eeprom*)
 .eeprom        0x0000000000810000       0x16 obj/main/config.o
                0x0000000000810000                s_uwEepromCrc
                0x0000000000810002                s_sEepromConfig
                0x0000000000810016                __eeprom_end = .

.fuse           0x0000000000820000        0x3
 *(.fuse)
 .fuse          0x0000000000820000        0x3 obj/main/fuse.o
                0x0000000000820000                __fuse
 *(.lfuse)
 *(.hfuse)
 *(.efuse)

.lock
 *(.lock*)

.signature
 *(.signature*)

.stab
 *(.stab)

.stabstr
 *(.stabstr)

.stab.excl
 *(.stab.excl)

.stab.exclstr
 *(.stab.exclstr)

.stab.index
 *(.stab.index)

.stab.indexstr
 *(.stab.indexstr)

.comment        0x0000000000000000       0x11
 *(.comment)
 .comment       0x0000000000000000       0x11 obj/main/pio_util.o
                                         0x12 (size before relaxing)
 .comment       0x0000000000000011       0x12 obj/main/fuse.o
 .comment       0x0000000000000011       0x12 obj/main/pb_proto.o
 .comment       0x0000000000000011       0x12 obj/main/cmd.o
 .comment       0x0000000000000011       0x12 obj/main/main.o
 .comment       0x0000000000000011       0x12 obj/main/bridge.o
 .comment       0x0000000000000011       0x12 obj/main/config.o
 .comment       0x0000000000000011       0x12 obj/main/cmdkey_table.o
 .comment       0x0000000000000011       0x12 obj/main/stats.o
 .comment       0x0000000000000011       0x12 obj/main/pkt_buf.o
 .comment       0x0000000000000011       0x12 obj/main/cmd_table.o
 .comment       0x0000000000000011       0x12 obj/main/net_arp.o
 .comment       0x0000000000000011       0x12 obj/main/net_net.o
 .comment       0x0000000000000011       0x12 obj/main/base_timer.o
 .comment       0x0000000000000011       0x12 obj/main/base_util.o
 .comment       0x0000000000000011       0x12 obj/main/base_uartutil.o
 .comment       0x0000000000000011       0x12 obj/main/base_uart.o
 .comment       0x0000000000000011       0x12 obj/main/spi_enc28j60.o
 .comment       0x0000000000000011       0x12 obj/main/spi_spi.o

.note.gnu.avr.deviceinfo
                0x0000000000000000       0x40
 .note.gnu.avr.deviceinfo
                0x0000000000000000       0x40 d:/prg/kompilatory/avr-gcc/bin/../lib/gcc/avr/7.2.0/../../../../avr/lib/avr5/crtatmega328p.o

.note.gnu.build-id
 *(.note.gnu.build-id)

.debug
 *(.debug)

.line
 *(.line)

.debug_srcinfo
 *(.debug_srcinfo)

.debug_sfnames
 *(.debug_sfnames)

.debug_aranges  0x0000000000000000      0x100
 *(.debug_aranges)
 .debug_aranges
                0x0000000000000000       0x20 d:/prg/kompilatory/avr-gcc/bin/../lib/gcc/avr/7.2.0/avr5\libgcc.a(_udivmodqi4.o)
 .debug_aranges
                0x0000000000000020       0x20 d:/prg/kompilatory/avr-gcc/bin/../lib/gcc/avr/7.2.0/avr5\libgcc.a(_udivmodsi4.o)
 .debug_aranges
                0x0000000000000040       0x20 d:/prg/kompilatory/avr-gcc/bin/../lib/gcc/avr/7.2.0/avr5\libgcc.a(_exit.o)
 .debug_aranges
                0x0000000000000060       0x20 d:/prg/kompilatory/avr-gcc/bin/../lib/gcc/avr/7.2.0/avr5\libgcc.a(_copy_data.o)
 .debug_aranges
                0x0000000000000080       0x20 d:/prg/kompilatory/avr-gcc/bin/../lib/gcc/avr/7.2.0/avr5\libgcc.a(_clear_bss.o)
 .debug_aranges
                0x00000000000000a0       0x20 d:/prg/kompilatory/avr-gcc/bin/../lib/gcc/avr/7.2.0/avr5\libgcc.a(_bswapsi2.o)
 .debug_aranges
                0x00000000000000c0       0x20 d:/prg/kompilatory/avr-gcc/bin/../lib/gcc/avr/7.2.0/avr5\libgcc.a(_muluhisi3.o)
 .debug_aranges
                0x00000000000000e0       0x20 d:/prg/kompilatory/avr-gcc/bin/../lib/gcc/avr/7.2.0/avr5\libgcc.a(_umulhisi3.o)

.debug_pubnames
 *(.debug_pubnames)

.debug_info     0x0000000000000000      0x724
 *(.debug_info .gnu.linkonce.wi.*)
 .debug_info    0x0000000000000000      0x5f4 d:/prg/kompilatory/avr-gcc/bin/../lib/gcc/avr/7.2.0/../../../../avr/lib/avr5/crtatmega328p.o
 .debug_info    0x00000000000005f4       0x26 d:/prg/kompilatory/avr-gcc/bin/../lib/gcc/avr/7.2.0/avr5\libgcc.a(_udivmodqi4.o)
 .debug_info    0x000000000000061a       0x26 d:/prg/kompilatory/avr-gcc/bin/../lib/gcc/avr/7.2.0/avr5\libgcc.a(_udivmodsi4.o)
 .debug_info    0x0000000000000640       0x26 d:/prg/kompilatory/avr-gcc/bin/../lib/gcc/avr/7.2.0/avr5\libgcc.a(_exit.o)
 .debug_info    0x0000000000000666       0x26 d:/prg/kompilatory/avr-gcc/bin/../lib/gcc/avr/7.2.0/avr5\libgcc.a(_copy_data.o)
 .debug_info    0x000000000000068c       0x26 d:/prg/kompilatory/avr-gcc/bin/../lib/gcc/avr/7.2.0/avr5\libgcc.a(_clear_bss.o)
 .debug_info    0x00000000000006b2       0x26 d:/prg/kompilatory/avr-gcc/bin/../lib/gcc/avr/7.2.0/avr5\libgcc.a(_bswapsi2.o)
 .debug_info    0x00000000000006d8       0x26 d:/prg/kompilatory/avr-gcc/bin/../lib/gcc/avr/7.2.0/avr5\libgcc.a(_muluhisi3.o)
 .debug_info    0x00000000000006fe       0x26 d:/prg/kompilatory/avr-gcc/bin/../lib/gcc/avr/7.2.0/avr5\libgcc.a(_umulhisi3.o)

.debug_abbrev   0x0000000000000000      0x642
 *(.debug_abbrev)
 .debug_abbrev  0x0000000000000000      0x5a2 d:/prg/kompilatory/avr-gcc/bin/../lib/gcc/avr/7.2.0/../../../../avr/lib/avr5/crtatmega328p.o
 .debug_abbrev  0x00000000000005a2       0x14 d:/prg/kompilatory/avr-gcc/bin/../lib/gcc/avr/7.2.0/avr5\libgcc.a(_udivmodqi4.o)
 .debug_abbrev  0x00000000000005b6       0x14 d:/prg/kompilatory/avr-gcc/bin/../lib/gcc/avr/7.2.0/avr5\libgcc.a(_udivmodsi4.o)
 .debug_abbrev  0x00000000000005ca       0x14 d:/prg/kompilatory/avr-gcc/bin/../lib/gcc/avr/7.2.0/avr5\libgcc.a(_exit.o)
 .debug_abbrev  0x00000000000005de       0x14 d:/prg/kompilatory/avr-gcc/bin/../lib/gcc/avr/7.2.0/avr5\libgcc.a(_copy_data.o)
 .debug_abbrev  0x00000000000005f2       0x14 d:/prg/kompilatory/avr-gcc/bin/../lib/gcc/avr/7.2.0/avr5\libgcc.a(_clear_bss.o)
 .debug_abbrev  0x0000000000000606       0x14 d:/prg/kompilatory/avr-gcc/bin/../lib/gcc/avr/7.2.0/avr5\libgcc.a(_bswapsi2.o)
 .debug_abbrev  0x000000000000061a       0x14 d:/prg/kompilatory/avr-gcc/bin/../lib/gcc/avr/7.2.0/avr5\libgcc.a(_muluhisi3.o)
 .debug_abbrev  0x000000000000062e       0x14 d:/prg/kompilatory/avr-gcc/bin/../lib/gcc/avr/7.2.0/avr5\libgcc.a(_umulhisi3.o)

.debug_line     0x0000000000000000      0x4ff
 *(.debug_line .debug_line.* .debug_line_end)
 .debug_line    0x0000000000000000       0x1d d:/prg/kompilatory/avr-gcc/bin/../lib/gcc/avr/7.2.0/../../../../avr/lib/avr5/crtatmega328p.o
 .debug_line    0x000000000000001d       0x9d d:/prg/kompilatory/avr-gcc/bin/../lib/gcc/avr/7.2.0/avr5\libgcc.a(_udivmodqi4.o)
 .debug_line    0x00000000000000ba      0x121 d:/prg/kompilatory/avr-gcc/bin/../lib/gcc/avr/7.2.0/avr5\libgcc.a(_udivmodsi4.o)
 .debug_line    0x00000000000001db       0x61 d:/prg/kompilatory/avr-gcc/bin/../lib/gcc/avr/7.2.0/avr5\libgcc.a(_exit.o)
 .debug_line    0x000000000000023c       0x97 d:/prg/kompilatory/avr-gcc/bin/../lib/gcc/avr/7.2.0/avr5\libgcc.a(_copy_data.o)
 .debug_line    0x00000000000002d3       0x85 d:/prg/kompilatory/avr-gcc/bin/../lib/gcc/avr/7.2.0/avr5\libgcc.a(_clear_bss.o)
 .debug_line    0x0000000000000358       0x67 d:/prg/kompilatory/avr-gcc/bin/../lib/gcc/avr/7.2.0/avr5\libgcc.a(_bswapsi2.o)
 .debug_line    0x00000000000003bf       0x91 d:/prg/kompilatory/avr-gcc/bin/../lib/gcc/avr/7.2.0/avr5\libgcc.a(_muluhisi3.o)
 .debug_line    0x0000000000000450       0xaf d:/prg/kompilatory/avr-gcc/bin/../lib/gcc/avr/7.2.0/avr5\libgcc.a(_umulhisi3.o)

.debug_frame
 *(.debug_frame)

.debug_str      0x0000000000000000      0x266
 *(.debug_str)
 .debug_str     0x0000000000000000      0x208 d:/prg/kompilatory/avr-gcc/bin/../lib/gcc/avr/7.2.0/../../../../avr/lib/avr5/crtatmega328p.o
 .debug_str     0x0000000000000208       0x5e d:/prg/kompilatory/avr-gcc/bin/../lib/gcc/avr/7.2.0/avr5\libgcc.a(_udivmodqi4.o)
 .debug_str     0x0000000000000266       0x5e d:/prg/kompilatory/avr-gcc/bin/../lib/gcc/avr/7.2.0/avr5\libgcc.a(_udivmodsi4.o)
 .debug_str     0x0000000000000266       0x5e d:/prg/kompilatory/avr-gcc/bin/../lib/gcc/avr/7.2.0/avr5\libgcc.a(_exit.o)
 .debug_str     0x0000000000000266       0x5e d:/prg/kompilatory/avr-gcc/bin/../lib/gcc/avr/7.2.0/avr5\libgcc.a(_copy_data.o)
 .debug_str     0x0000000000000266       0x5e d:/prg/kompilatory/avr-gcc/bin/../lib/gcc/avr/7.2.0/avr5\libgcc.a(_clear_bss.o)
 .debug_str     0x0000000000000266       0x5e d:/prg/kompilatory/avr-gcc/bin/../lib/gcc/avr/7.2.0/avr5\libgcc.a(_bswapsi2.o)
 .debug_str     0x0000000000000266       0x5e d:/prg/kompilatory/avr-gcc/bin/../lib/gcc/avr/7.2.0/avr5\libgcc.a(_muluhisi3.o)
 .debug_str     0x0000000000000266       0x5e d:/prg/kompilatory/avr-gcc/bin/../lib/gcc/avr/7.2.0/avr5\libgcc.a(_umulhisi3.o)

.debug_loc
 *(.debug_loc)

.debug_macinfo
 *(.debug_macinfo)

.debug_weaknames
 *(.debug_weaknames)

.debug_funcnames
 *(.debug_funcnames)

.debug_typenames
 *(.debug_typenames)

.debug_varnames
 *(.debug_varnames)

.debug_pubtypes
 *(.debug_pubtypes)

.debug_ranges
 *(.debug_ranges)

.debug_macro
 *(.debug_macro)

.debug_addr
 *(.debug_addr)
OUTPUT(bin/main/plipUltimate.elf elf32-avr)
LOAD linker stubs

Cross Reference Table

Symbol                                            File
__bad_interrupt                                   d:/prg/kompilatory/avr-gcc/bin/../lib/gcc/avr/7.2.0/../../../../avr/lib/avr5/crtatmega328p.o
__bss_end                                         d:/prg/kompilatory/avr-gcc/bin/../lib/gcc/avr/7.2.0/avr5\libgcc.a(_clear_bss.o)
__bss_start                                       d:/prg/kompilatory/avr-gcc/bin/../lib/gcc/avr/7.2.0/avr5\libgcc.a(_clear_bss.o)
__bswapsi2                                        d:/prg/kompilatory/avr-gcc/bin/../lib/gcc/avr/7.2.0/avr5\libgcc.a(_bswapsi2.o)
                                                  obj/main/net_net.o
__data_end                                        d:/prg/kompilatory/avr-gcc/bin/../lib/gcc/avr/7.2.0/avr5\libgcc.a(_copy_data.o)
__data_load_start                                 d:/prg/kompilatory/avr-gcc/bin/../lib/gcc/avr/7.2.0/avr5\libgcc.a(_copy_data.o)
__data_start                                      d:/prg/kompilatory/avr-gcc/bin/../lib/gcc/avr/7.2.0/avr5\libgcc.a(_copy_data.o)
__do_clear_bss                                    d:/prg/kompilatory/avr-gcc/bin/../lib/gcc/avr/7.2.0/avr5\libgcc.a(_clear_bss.o)
                                                  obj/main/spi_enc28j60.o
                                                  obj/main/base_uart.o
                                                  obj/main/base_timer.o
                                                  obj/main/pkt_buf.o
                                                  obj/main/stats.o
                                                  obj/main/config.o
                                                  obj/main/bridge.o
                                                  obj/main/main.o
                                                  obj/main/cmd.o
                                                  obj/main/pb_proto.o
                                                  obj/main/pio_util.o
__do_copy_data                                    d:/prg/kompilatory/avr-gcc/bin/../lib/gcc/avr/7.2.0/avr5\libgcc.a(_copy_data.o)
                                                  obj/main/net_net.o
                                                  obj/main/pb_proto.o
__fuse                                            obj/main/fuse.o
__heap_end                                        d:/prg/kompilatory/avr-gcc/bin/../lib/gcc/avr/7.2.0/../../../../avr/lib/avr5/crtatmega328p.o
__init                                            d:/prg/kompilatory/avr-gcc/bin/../lib/gcc/avr/7.2.0/../../../../avr/lib/avr5/crtatmega328p.o
__muluhisi3                                       d:/prg/kompilatory/avr-gcc/bin/../lib/gcc/avr/7.2.0/avr5\libgcc.a(_muluhisi3.o)
                                                  obj/main/base_timer.o
__stack                                           d:/prg/kompilatory/avr-gcc/bin/../lib/gcc/avr/7.2.0/../../../../avr/lib/avr5/crtatmega328p.o
__udivmodqi4                                      d:/prg/kompilatory/avr-gcc/bin/../lib/gcc/avr/7.2.0/avr5\libgcc.a(_udivmodqi4.o)
                                                  obj/main/base_util.o
__udivmodsi4                                      d:/prg/kompilatory/avr-gcc/bin/../lib/gcc/avr/7.2.0/avr5\libgcc.a(_udivmodsi4.o)
                                                  obj/main/base_util.o
                                                  obj/main/base_timer.o
__umulhisi3                                       d:/prg/kompilatory/avr-gcc/bin/../lib/gcc/avr/7.2.0/avr5\libgcc.a(_umulhisi3.o)
                                                  d:/prg/kompilatory/avr-gcc/bin/../lib/gcc/avr/7.2.0/avr5\libgcc.a(_muluhisi3.o)
__vector_1                                        d:/prg/kompilatory/avr-gcc/bin/../lib/gcc/avr/7.2.0/../../../../avr/lib/avr5/crtatmega328p.o
__vector_10                                       d:/prg/kompilatory/avr-gcc/bin/../lib/gcc/avr/7.2.0/../../../../avr/lib/avr5/crtatmega328p.o
__vector_11                                       obj/main/base_timer.o
                                                  d:/prg/kompilatory/avr-gcc/bin/../lib/gcc/avr/7.2.0/../../../../avr/lib/avr5/crtatmega328p.o
__vector_12                                       d:/prg/kompilatory/avr-gcc/bin/../lib/gcc/avr/7.2.0/../../../../avr/lib/avr5/crtatmega328p.o
__vector_13                                       d:/prg/kompilatory/avr-gcc/bin/../lib/gcc/avr/7.2.0/../../../../avr/lib/avr5/crtatmega328p.o
__vector_14                                       d:/prg/kompilatory/avr-gcc/bin/../lib/gcc/avr/7.2.0/../../../../avr/lib/avr5/crtatmega328p.o
__vector_15                                       d:/prg/kompilatory/avr-gcc/bin/../lib/gcc/avr/7.2.0/../../../../avr/lib/avr5/crtatmega328p.o
__vector_16                                       d:/prg/kompilatory/avr-gcc/bin/../lib/gcc/avr/7.2.0/../../../../avr/lib/avr5/crtatmega328p.o
__vector_17                                       d:/prg/kompilatory/avr-gcc/bin/../lib/gcc/avr/7.2.0/../../../../avr/lib/avr5/crtatmega328p.o
__vector_18                                       obj/main/base_uart.o
                                                  d:/prg/kompilatory/avr-gcc/bin/../lib/gcc/avr/7.2.0/../../../../avr/lib/avr5/crtatmega328p.o
__vector_19                                       d:/prg/kompilatory/avr-gcc/bin/../lib/gcc/avr/7.2.0/../../../../avr/lib/avr5/crtatmega328p.o
__vector_2                                        d:/prg/kompilatory/avr-gcc/bin/../lib/gcc/avr/7.2.0/../../../../avr/lib/avr5/crtatmega328p.o
__vector_20                                       d:/prg/kompilatory/avr-gcc/bin/../lib/gcc/avr/7.2.0/../../../../avr/lib/avr5/crtatmega328p.o
__vector_21                                       d:/prg/kompilatory/avr-gcc/bin/../lib/gcc/avr/7.2.0/../../../../avr/lib/avr5/crtatmega328p.o
__vector_22                                       d:/prg/kompilatory/avr-gcc/bin/../lib/gcc/avr/7.2.0/../../../../avr/lib/avr5/crtatmega328p.o
__vector_23                                       d:/prg/kompilatory/avr-gcc/bin/../lib/gcc/avr/7.2.0/../../../../avr/lib/avr5/crtatmega328p.o
__vector_24                                       d:/prg/kompilatory/avr-gcc/bin/../lib/gcc/avr/7.2.0/../../../../avr/lib/avr5/crtatmega328p.o
__vector_25                                       d:/prg/kompilatory/avr-gcc/bin/../lib/gcc/avr/7.2.0/../../../../avr/lib/avr5/crtatmega328p.o
__vector_3                                        d:/prg/kompilatory/avr-gcc/bin/../lib/gcc/avr/7.2.0/../../../../avr/lib/avr5/crtatmega328p.o
__vector_4                                        d:/prg/kompilatory/avr-gcc/bin/../lib/gcc/avr/7.2.0/../../../../avr/lib/avr5/crtatmega328p.o
__vector_5                                        d:/prg/kompilatory/avr-gcc/bin/../lib/gcc/avr/7.2.0/../../../../avr/lib/avr5/crtatmega328p.o
__vector_6                                        d:/prg/kompilatory/avr-gcc/bin/../lib/gcc/avr/7.2.0/../../../../avr/lib/avr5/crtatmega328p.o
__vector_7                                        d:/prg/kompilatory/avr-gcc/bin/../lib/gcc/avr/7.2.0/../../../../avr/lib/avr5/crtatmega328p.o
__vector_8                                        d:/prg/kompilatory/avr-gcc/bin/../lib/gcc/avr/7.2.0/../../../../avr/lib/avr5/crtatmega328p.o
__vector_9                                        d:/prg/kompilatory/avr-gcc/bin/../lib/gcc/avr/7.2.0/../../../../avr/lib/avr5/crtatmega328p.o
__vector_default                                  d:/prg/kompilatory/avr-gcc/bin/../lib/gcc/avr/7.2.0/../../../../avr/lib/avr5/crtatmega328p.o
__vectors                                         d:/prg/kompilatory/avr-gcc/bin/../lib/gcc/avr/7.2.0/../../../../avr/lib/avr5/crtatmega328p.o
_exit                                             d:/prg/kompilatory/avr-gcc/bin/../lib/gcc/avr/7.2.0/avr5\libgcc.a(_exit.o)
arp_is_ipv4                                       obj/main/net_arp.o
arp_make_reply                                    obj/main/net_arp.o
bridgeFillPacket                                  obj/main/bridge.o
                                                  obj/main/pb_proto.o
bridgeLoop                                        obj/main/bridge.o
                                                  obj/main/main.o
bridgeProcessPacket                               obj/main/bridge.o
                                                  obj/main/pb_proto.o
cmdProcess                                        obj/main/cmd.o
                                                  obj/main/bridge.o
configInit                                        obj/main/config.o
                                                  obj/main/main.o
configLoadFromRom                                 obj/main/config.o
configReset                                       obj/main/config.o
configSaveToRom                                   obj/main/config.o
                                                  obj/main/bridge.o
                                                  obj/main/cmd.o
eeprom_read_block                                 d:/prg/kompilatory/avr-gcc/bin/../lib/gcc/avr/7.2.0/../../../../avr/lib/avr5\libatmega328p.a(eerd_block.o)
                                                  obj/main/config.o
eeprom_read_blraw                                 d:/prg/kompilatory/avr-gcc/bin/../lib/gcc/avr/7.2.0/../../../../avr/lib/avr5\libatmega328p.a(eerd_block.o)
                                                  d:/prg/kompilatory/avr-gcc/bin/../lib/gcc/avr/7.2.0/../../../../avr/lib/avr5\libatmega328p.a(eerd_word.o)
eeprom_read_word                                  d:/prg/kompilatory/avr-gcc/bin/../lib/gcc/avr/7.2.0/../../../../avr/lib/avr5\libatmega328p.a(eerd_word.o)
                                                  obj/main/config.o
eeprom_write_block                                d:/prg/kompilatory/avr-gcc/bin/../lib/gcc/avr/7.2.0/../../../../avr/lib/avr5\libatmega328p.a(eewr_block.o)
                                                  obj/main/config.o
eeprom_write_byte                                 d:/prg/kompilatory/avr-gcc/bin/../lib/gcc/avr/7.2.0/../../../../avr/lib/avr5\libatmega328p.a(eewr_byte.o)
                                                  d:/prg/kompilatory/avr-gcc/bin/../lib/gcc/avr/7.2.0/../../../../avr/lib/avr5\libatmega328p.a(eewr_word.o)
eeprom_write_r18                                  d:/prg/kompilatory/avr-gcc/bin/../lib/gcc/avr/7.2.0/../../../../avr/lib/avr5\libatmega328p.a(eewr_byte.o)
                                                  d:/prg/kompilatory/avr-gcc/bin/../lib/gcc/avr/7.2.0/../../../../avr/lib/avr5\libatmega328p.a(eewr_word.o)
                                                  d:/prg/kompilatory/avr-gcc/bin/../lib/gcc/avr/7.2.0/../../../../avr/lib/avr5\libatmega328p.a(eewr_block.o)
eeprom_write_word                                 d:/prg/kompilatory/avr-gcc/bin/../lib/gcc/avr/7.2.0/../../../../avr/lib/avr5\libatmega328p.a(eewr_word.o)
                                                  obj/main/config.o
enc28j60_control                                  obj/main/spi_enc28j60.o
                                                  obj/main/bridge.o
enc28j60_exit                                     obj/main/spi_enc28j60.o
                                                  obj/main/bridge.o
                                                  obj/main/cmd.o
enc28j60_has_recv                                 obj/main/spi_enc28j60.o
                                                  obj/main/bridge.o
enc28j60_init                                     obj/main/spi_enc28j60.o
                                                  obj/main/bridge.o
                                                  obj/main/cmd.o
enc28j60_recv                                     obj/main/spi_enc28j60.o
                                                  obj/main/pio_util.o
enc28j60_send                                     obj/main/spi_enc28j60.o
                                                  obj/main/pio_util.o
enc28j60_status                                   obj/main/spi_enc28j60.o
exit                                              d:/prg/kompilatory/avr-gcc/bin/../lib/gcc/avr/7.2.0/avr5\libgcc.a(_exit.o)
                                                  d:/prg/kompilatory/avr-gcc/bin/../lib/gcc/avr/7.2.0/../../../../avr/lib/avr5/crtatmega328p.o
g_pDataBuffer                                     obj/main/pkt_buf.o
                                                  obj/main/bridge.o
                                                  obj/main/cmd.o
                                                  obj/main/pb_proto.o
                                                  obj/main/pio_util.o
g_sConfig                                         obj/main/config.o
                                                  obj/main/bridge.o
                                                  obj/main/cmd.o
                                                  obj/main/pio_util.o
g_ubEncOnline                                     obj/main/spi_enc28j60.o
                                                  obj/main/base_timer.o
                                                  obj/main/bridge.o
                                                  obj/main/cmd.o
                                                  obj/main/pio_util.o
g_ubVerboseMode                                   obj/main/main.o
g_uwCmdResponseSize                               obj/main/cmd.o
                                                  obj/main/bridge.o
g_uwTimeStamp                                     obj/main/base_timer.o
                                                  obj/main/pb_proto.o
g_uwTimer100us                                    obj/main/base_timer.o
                                                  obj/main/pb_proto.o
g_uwTimer10ms                                     obj/main/base_timer.o
main                                              obj/main/main.o
                                                  d:/prg/kompilatory/avr-gcc/bin/../lib/gcc/avr/7.2.0/../../../../avr/lib/avr5/crtatmega328p.o
net_bcast_mac                                     obj/main/net_net.o
                                                  obj/main/bridge.o
net_compare_ip                                    obj/main/net_net.o
net_compare_mac                                   obj/main/net_net.o
                                                  obj/main/bridge.o
net_copy_ip                                       obj/main/net_net.o
                                                  obj/main/net_arp.o
net_copy_mac                                      obj/main/net_net.o
                                                  obj/main/net_arp.o
                                                  obj/main/bridge.o
net_dump_ip                                       obj/main/net_net.o
net_dump_mac                                      obj/main/net_net.o
net_get_long                                      obj/main/net_net.o
net_get_word                                      obj/main/net_net.o
                                                  obj/main/net_arp.o
                                                  obj/main/bridge.o
net_ones_ip                                       obj/main/net_net.o
net_parse_ip                                      obj/main/net_net.o
net_parse_mac                                     obj/main/net_net.o
net_put_long                                      obj/main/net_net.o
net_put_word                                      obj/main/net_net.o
                                                  obj/main/net_arp.o
                                                  obj/main/bridge.o
net_zero_ip                                       obj/main/net_net.o
net_zero_mac                                      obj/main/net_net.o
parGetStatusLines                                 obj/main/pb_proto.o
parInit                                           obj/main/pb_proto.o
                                                  obj/main/bridge.o
parRequestAmiRead                                 obj/main/pb_proto.o
                                                  obj/main/bridge.o
pb_proto_handle                                   obj/main/pb_proto.o
                                                  obj/main/bridge.o
pb_proto_stat                                     obj/main/pb_proto.o
pb_proto_timeout                                  obj/main/pb_proto.o
pio_util_get_init_flags                           obj/main/pio_util.o
                                                  obj/main/bridge.o
                                                  obj/main/cmd.o
pio_util_recv_packet                              obj/main/pio_util.o
                                                  obj/main/bridge.o
pio_util_send_packet                              obj/main/pio_util.o
                                                  obj/main/bridge.o
s_sEepromConfig                                   obj/main/config.o
s_ubFlags                                         obj/main/bridge.o
s_uwEepromCrc                                     obj/main/config.o
spiInit                                           obj/main/spi_spi.o
                                                  obj/main/spi_enc28j60.o
stats                                             obj/main/stats.o
                                                  obj/main/pb_proto.o
                                                  obj/main/pio_util.o
stats_dump                                        obj/main/stats.o
stats_dump_all                                    obj/main/stats.o
stats_reset                                       obj/main/stats.o
                                                  obj/main/bridge.o
stats_update_ok                                   obj/main/stats.o
                                                  obj/main/pb_proto.o
                                                  obj/main/pio_util.o
timerCalculateKbps                                obj/main/base_timer.o
                                                  obj/main/pb_proto.o
                                                  obj/main/pio_util.o
timerDelay100us                                   obj/main/base_timer.o
                                                  obj/main/spi_enc28j60.o
                                                  obj/main/pb_proto.o
timerDelay10ms                                    obj/main/base_timer.o
timerInit                                         obj/main/base_timer.o
                                                  obj/main/main.o
uart_init                                         obj/main/base_uart.o
uart_read                                         obj/main/base_uart.o
uart_read_data_available                          obj/main/base_uart.o
uart_send                                         obj/main/base_uart.o
utilByteToDec                                     obj/main/base_util.o
                                                  obj/main/net_net.o
utilByteToHex                                     obj/main/base_util.o
                                                  obj/main/net_net.o
utilDwordToDec                                    obj/main/base_util.o
utilDwordToHex                                    obj/main/base_util.o
utilNibbleToHex                                   obj/main/base_util.o
utilParseByteDec                                  obj/main/base_util.o
                                                  obj/main/net_net.o
utilParseByteHex                                  obj/main/base_util.o
                                                  obj/main/net_net.o
utilParseDwordHex                                 obj/main/base_util.o
utilParseNibbleHex                                obj/main/base_util.o
utilParseWordHex                                  obj/main/base_util.o
utilReset                                         obj/main/base_util.o
                                                  obj/main/cmd.o
utilWordToHex                                     obj/main/base_util.o
